(lp0
(lp1
(lp2
F4.3098301887512207
aF1.7134462594985962
aF0.0
aa(lp3
F907.5252685546875
aF0.0
aF0.0
aaF1.0000000000000001e-05
aa(lp4
(lp5
F4.3098301887512207
aF1.7134462594985962
aF0.0
aa(lp6
F907.5252685546875
aF0.0
aF0.0
aaF0.093032000000004819
aa(lp7
(lp8
F4.3098301887512207
aF1.7134462594985962
aF0.0
aa(lp9
F907.5252685546875
aF0.0
aF0.0
aaF0.099011000000001223
aa(lp10
(lp11
F4.2830390930175781
aF1.709907054901123
aF0.0
aa(lp12
F907.5252685546875
aF0.0
aF0.0
aaF0.098644000000004103
aa(lp13
(lp14
F4.2289719581604004
aF1.7027647495269775
aF0.0
aa(lp15
F907.5252685546875
aF0.0
aF0.0
aaF0.099236999999999062
aa(lp16
(lp17
F4.1460576057434082
aF1.6918116807937622
aF0.0
aa(lp18
F907.5252685546875
aF0.0
aF0.0
aaF0.10081899999999815
aa(lp19
(lp20
F4.0368938446044922
aF1.6773910522460938
aF0.0
aa(lp21
F907.5252685546875
aF0.0
aF0.0
aaF0.099554999999991997
aa(lp22
(lp23
F3.9008181095123291
aF1.6594153642654419
aF0.0
aa(lp24
F907.5252685546875
aF0.0
aF0.0
aaF0.099326000000001732
aa(lp25
(lp26
F3.7371153831481934
aF1.6377900838851929
aF0.0
aa(lp27
F907.5252685546875
aF0.0
aF0.0
aaF0.099568000000001808
aa(lp28
(lp29
F3.5461103916168213
aF1.612558126449585
aF0.0
aa(lp30
F907.5252685546875
aF0.0
aF0.0
aaF0.099570999999994234
aa(lp31
(lp32
F3.3287599086761475
aF1.5838459730148315
aF0.0
aa(lp33
F907.5252685546875
aF0.0
aF0.0
aaF0.099185000000002452
aa(lp34
(lp35
F3.0844466686248779
aF1.5515719652175903
aF0.0
aa(lp36
F907.5252685546875
aF0.0
aF0.0
aaF0.099140000000002379
aa(lp37
(lp38
F2.813162088394165
aF1.5157350301742554
aF0.0
aa(lp39
F907.5252685546875
aF0.0
aF0.0
aaF0.099110000000007067
aa(lp40
(lp41
F2.5142152309417725
aF1.4762438535690308
aF0.0
aa(lp42
F907.5252685546875
aF0.0
aF0.0
aaF0.09929799999998716
aa(lp43
(lp44
F2.1854329109191895
aF1.4328114986419678
aF0.0
aa(lp45
F907.5252685546875
aF0.0
aF0.0
aaF0.10005300000001364
aa(lp46
(lp47
F1.8301856517791748
aF1.3858829736709595
aF0.0
aa(lp48
F907.5252685546875
aF0.0
aF0.0
aaF0.099766999999996761
aa(lp49
(lp50
F1.4496743679046631
aF1.3356170654296875
aF0.0
aa(lp51
F907.5252685546875
aF0.0
aF0.0
aaF0.09924599999999055
aa(lp52
(lp53
F1.0502746105194092
aF1.2828561067581177
aF0.0
aa(lp54
F907.5252685546875
aF0.0
aF0.0
aaF0.097365000000007404
aa(lp55
(lp56
F0.64856868982315063
aF1.2297903299331665
aF0.0
aa(lp57
F907.5252685546875
aF0.0
aF0.0
aaF0.097256999999995861
aa(lp58
(lp59
F0.26115104556083679
aF1.1786121129989624
aF0.0
aa(lp60
F907.5252685546875
aF0.0
aF0.0
aaF0.093798000000003531
aa(lp61
(lp62
F-0.11838088929653168
aF1.1284756660461426
aF0.0
aa(lp63
F907.5252685546875
aF0.0
aF0.0
aaF0.091889000000005813
aa(lp64
(lp65
F-0.49250563979148865
aF1.0790534019470215
aF0.0
aa(lp66
F907.5252685546875
aF0.0
aF0.0
aaF0.090579999999999591
aa(lp67
(lp68
F-0.85665047168731689
aF1.030949592590332
aF0.0
aa(lp69
F907.5252685546875
aF0.0
aF0.0
aaF0.088164000000002948
aa(lp70
(lp71
F-1.2149626016616821
aF0.98361623287200928
aF0.0
aa(lp72
F907.5252685546875
aF0.0
aF0.0
aaF0.08675199999998677
aa(lp73
(lp74
F-1.5590441226959229
aF0.93816274404525757
aF0.0
aa(lp75
F907.5252685546875
aF0.0
aF0.0
aaF0.083307000000015938
aa(lp76
(lp77
F-1.8881310224533081
aF0.89469009637832642
aF0.0
aa(lp78
F907.5252685546875
aF0.0
aF0.0
aaF0.079677000000000595
aa(lp79
(lp80
F-2.2180109024047852
aF0.85111266374588013
aF0.0
aa(lp81
F907.5252685546875
aF0.0
aF0.0
aaF0.07986899999999901
aa(lp82
(lp83
F-2.5477299690246582
aF0.80755650997161865
aF0.0
aa(lp84
F907.5252685546875
aF0.0
aF0.0
aaF0.079829999999983789
aa(lp85
(lp86
F-2.8748505115509033
aF0.76434361934661865
aF0.0
aa(lp87
F907.5252685546875
aF0.0
aF0.0
aaF0.079201000000008667
aa(lp88
(lp89
F-3.2022395133972168
aF0.72109520435333252
aF0.0
aa(lp90
F907.5252685546875
aF0.0
aF0.0
aaF0.079265999999986667
aa(lp91
(lp92
F-3.5301864147186279
aF0.67777317762374878
aF0.0
aa(lp93
F907.5252685546875
aF0.0
aF0.0
aaF0.079401000000015307
aa(lp94
(lp95
F-3.8585586547851562
aF0.63439488410949707
aF0.0
aa(lp96
F907.5252685546875
aF0.0
aF0.0
aaF0.07950399999998263
aa(lp97
(lp98
F-4.1860508918762207
aF0.59113287925720215
aF0.0
aa(lp99
F907.5252685546875
aF0.0
aF0.0
aaF0.079290999999994602
aa(lp100
(lp101
F-4.5128536224365234
aF0.54796195030212402
aF0.0
aa(lp102
F907.5252685546875
aF0.0
aF0.0
aaF0.079124000000004122
aa(lp103
(lp104
F-4.8400774002075195
aF0.50473541021347046
aF0.0
aa(lp105
F907.5252685546875
aF0.0
aF0.0
aaF0.079226000000002392
aa(lp106
(lp107
F-5.1669535636901855
aF0.46073058247566223
aF0.0
aa(lp108
F907.80914306640625
aF0.0
aF0.0
aaF0.079168000000006719
aa(lp109
(lp110
F-5.4940481185913086
aF0.41421234607696533
aF0.0
aa(lp111
F908.37908935546875
aF0.0
aF0.0
aaF0.079302999999978516
aa(lp112
(lp113
F-5.8207998275756836
aF0.36358195543289185
aF0.0
aa(lp114
F909.23687744140625
aF0.0
aF0.0
aaF0.079367000000015883
aa(lp115
(lp116
F-6.1466832160949707
aF0.30722987651824951
aF0.0
aa(lp117
F910.3843994140625
aF0.0
aF0.0
aaF0.079384000000001384
aa(lp118
(lp119
F-6.4724712371826172
aF0.24326683580875397
aF0.0
aa(lp120
F911.83111572265625
aF0.0
aF0.0
aaF0.079693999999986095
aa(lp121
(lp122
F-6.8016057014465332
aF0.16897024214267731
aF0.0
aa(lp123
F913.609619140625
aF0.0
aF0.0
aaF0.080993000000003354
aa(lp124
(lp125
F-7.1227750778198242
aF0.085097752511501312
aF0.0
aa(lp126
F915.66192626953125
aF0.0
aF0.0
aaF0.07967999999999302
aa(lp127
(lp128
F-7.4403300285339355
aF-0.011028317734599113
aF0.0
aa(lp129
F918.02099609375
aF0.0
aF0.0
aaF0.079643999999998646
aa(lp130
(lp131
F-7.7523593902587891
aF-0.12062139809131622
aF0.0
aa(lp132
F920.68426513671875
aF0.0
aF0.0
aaF0.079389000000017182
aa(lp133
(lp134
F-8.0586605072021484
aF-0.24349233508110046
aF0.0
aa(lp135
F923.031494140625
aF0.0
aF0.0
aaF0.079221999999984069
aa(lp136
(lp137
F-8.3588991165161133
aF-0.37747839093208313
aF0.0
aa(lp138
F925.067626953125
aF0.0
aF0.0
aaF0.078921000000005057
aa(lp139
(lp140
F-8.6540994644165039
aF-0.52104973793029785
aF0.0
aa(lp141
F926.804443359375
aF0.0
aF0.0
aaF0.078796000000008012
aa(lp142
(lp143
F-8.9449615478515625
aF-0.67263370752334595
aF0.0
aa(lp144
F928.24853515625
aF0.0
aF0.0
aaF0.078730000000004116
aa(lp145
(lp146
F-9.2325916290283203
aF-0.83093678951263428
aF0.0
aa(lp147
F929.4056396484375
aF0.0
aF0.0
aaF0.07880699999998024
aa(lp148
(lp149
F-9.517913818359375
aF-0.99461978673934937
aF0.0
aa(lp150
F930.2783203125
aF0.0
aF0.0
aaF0.078956000000001955
aa(lp151
(lp152
F-9.8013420104980469
aF-1.1620553731918335
aF0.0
aa(lp153
F930.86669921875
aF0.0
aF0.0
aaF0.079016000000021
aa(lp154
(lp155
F-10.083835601806641
aF-1.3319231271743774
aF0.0
aa(lp156
F931.17156982421875
aF0.0
aF0.0
aaF0.079121999999980749
aa(lp157
(lp158
F-10.364312171936035
aF-1.5035642385482788
aF0.0
aa(lp159
F931.75860595703125
aF0.0
aF0.0
aaF0.07892900000001328
aa(lp160
(lp161
F-10.641756057739258
aF-1.6782300472259521
aF0.0
aa(lp162
F932.62652587890625
aF0.0
aF0.0
aaF0.078694000000009742
aa(lp163
(lp164
F-10.93303108215332
aF-1.8691856861114502
aF0.0
aa(lp165
F933.8699951171875
aF0.0
aF0.0
aaF0.083600999999984202
aa(lp166
(lp167
F-11.205959320068359
aF-2.057530403137207
aF0.0
aa(lp168
F935.3482666015625
aF0.0
aF0.0
aaF0.079598000000001098
aa(lp169
(lp170
F-11.47174072265625
aF-2.2522656917572021
aF0.0
aa(lp171
F937.11138916015625
aF0.0
aF0.0
aaF0.079090000000004698
aa(lp172
(lp173
F-11.731542587280273
aF-2.4563083648681641
aF0.0
aa(lp174
F939.1793212890625
aF0.0
aF0.0
aaF0.079297999999991139
aa(lp175
(lp176
F-11.982958793640137
aF-2.6700115203857422
aF0.0
aa(lp177
F941.54962158203125
aF0.0
aF0.0
aaF0.079208000000019416
aa(lp178
(lp179
F-12.224787712097168
aF-2.8946609497070312
aF0.0
aa(lp180
F944.23193359375
aF0.0
aF0.0
aaF0.079234999999979669
aa(lp181
(lp182
F-12.45473575592041
aF-3.1305351257324219
aF0.0
aa(lp183
F947.22589111328125
aF0.0
aF0.0
aaF0.079078000000006574
aa(lp184
(lp185
F-12.671670913696289
aF-3.3791096210479736
aF0.0
aa(lp186
F950.55059814453125
aF0.0
aF0.0
aaF0.079203000000003618
aa(lp187
(lp188
F-12.873261451721191
aF-3.6407175064086914
aF0.0
aa(lp189
F954.2149658203125
aF0.0
aF0.0
aaF0.079287999999987965
aa(lp190
(lp191
F-13.057429313659668
aF-3.915149450302124
aF0.0
aa(lp192
F958.05487060546875
aF0.0
aF0.0
aaF0.079345000000014584
aa(lp193
(lp194
F-13.222665786743164
aF-4.2010378837585449
aF0.0
aa(lp195
F961.891357421875
aF0.0
aF0.0
aaF0.07927399999999489
aa(lp196
(lp197
F-13.368183135986328
aF-4.4968514442443848
aF0.0
aa(lp198
F965.7215576171875
aF0.0
aF0.0
aaF0.079145000000007945
aa(lp199
(lp200
F-13.494014739990234
aF-4.8027982711791992
aF0.0
aa(lp201
F969.56512451171875
aF0.0
aF0.0
aaF0.079419999999995758
aa(lp202
(lp203
F-13.59898567199707
aF-5.1162605285644531
aF0.0
aa(lp204
F973.40582275390625
aF0.0
aF0.0
aaF0.079362000000000085
aa(lp205
(lp206
F-13.683063507080078
aF-5.4375452995300293
aF0.0
aa(lp207
F977.264404296875
aF0.0
aF0.0
aaF0.079730000000008891
aa(lp208
(lp209
F-13.745125770568848
aF-5.7624592781066895
aF0.0
aa(lp210
F981.107666015625
aF0.0
aF0.0
aaF0.079413999999982485
aa(lp211
(lp212
F-13.786084175109863
aF-6.0889620780944824
aF0.0
aa(lp213
F984.59197998046875
aF0.0
aF0.0
aaF0.078997000000012127
aa(lp214
(lp215
F-13.807974815368652
aF-6.4151372909545898
aF0.0
aa(lp216
F987.7288818359375
aF0.0
aF0.0
aaF0.078477999999986656
aa(lp217
(lp218
F-13.812884330749512
aF-6.742363452911377
aF0.0
aa(lp219
F990.55218505859375
aF0.0
aF0.0
aaF0.078561000000004474
aa(lp220
(lp221
F-13.802603721618652
aF-7.0684585571289062
aF0.0
aa(lp222
F993.05926513671875
aF0.0
aF0.0
aaF0.078317999999992713
aa(lp223
(lp224
F-13.778933525085449
aF-7.3937406539916992
aF0.0
aa(lp225
F995.2645263671875
aF0.0
aF0.0
aaF0.078289000000009087
aa(lp226
(lp227
F-13.743250846862793
aF-7.7207927703857422
aF0.0
aa(lp228
F997.1885986328125
aF0.0
aF0.0
aaF0.078971999999989981
aa(lp229
(lp230
F-13.697904586791992
aF-8.0435914993286133
aF0.0
aa(lp231
F998.80462646484375
aF0.0
aF0.0
aaF0.07824500000000649
aa(lp232
(lp233
F-13.64427375793457
aF-8.3651294708251953
aF0.0
aa(lp234
F1000.1343383789062
aF0.0
aF0.0
aaF0.07824700000000144
aa(lp235
(lp236
F-13.583078384399414
aF-8.6901397705078125
aF0.0
aa(lp237
F1001.1919555664062
aF0.0
aF0.0
aaF0.079384000000001384
aa(lp238
(lp239
F-13.51743221282959
aF-9.0106878280639648
aF0.0
aa(lp240
F1001.9555053710938
aF0.0
aF0.0
aaF0.078539000000003176
aa(lp241
(lp242
F-13.447786331176758
aF-9.3328828811645508
aF0.0
aa(lp243
F1002.4396362304688
aF0.0
aF0.0
aaF0.079123000000006646
aa(lp244
(lp245
F-13.376156806945801
aF-9.6549253463745117
aF0.0
aa(lp246
F1002.6397094726562
aF0.0
aF0.0
aaF0.079188999999982121
aa(lp247
(lp248
F-13.30389404296875
aF-9.9771642684936523
aF0.0
aa(lp249
F1002.6397094726562
aF0.0
aF0.0
aaF0.079268000000010039
aa(lp250
(lp251
F-13.231605529785156
aF-10.299511909484863
aF0.0
aa(lp252
F1002.6397094726562
aF0.0
aF0.0
aaF0.079294999999998714
aa(lp253
(lp254
F-13.159656524658203
aF-10.620351791381836
aF0.0
aa(lp255
F1002.6397094726562
aF0.0
aF0.0
aaF0.078923999999997482
aa(lp256
(lp257
F-13.087888717651367
aF-10.94037914276123
aF0.0
aa(lp258
F1002.6397094726562
aF0.0
aF0.0
aaF0.078723999999990843
aa(lp259
(lp260
F-13.011338233947754
aF-11.281733512878418
aF0.0
aa(lp261
F1002.6397094726562
aF0.0
aF0.0
aaF0.083970000000018905
aa(lp262
(lp263
F-12.939062118530273
aF-11.604033470153809
aF0.0
aa(lp264
F1002.6397094726562
aF0.0
aF0.0
aaF0.079283000000000589
aa(lp265
(lp266
F-12.866971969604492
aF-11.925498962402344
aF0.0
aa(lp267
F1002.6397094726562
aF0.0
aF0.0
aaF0.079077999999978152
aa(lp268
(lp269
F-12.794984817504883
aF-12.246505737304688
aF0.0
aa(lp270
F1002.6397094726562
aF0.0
aF0.0
aaF0.078965000000007654
aa(lp271
(lp272
F-12.723212242126465
aF-12.566556930541992
aF0.0
aa(lp273
F1002.6397094726562
aF0.0
aF0.0
aaF0.078730000000004116
aa(lp274
(lp275
F-12.649618148803711
aF-12.894726753234863
aF0.0
aa(lp276
F1002.6397094726562
aF0.0
aF0.0
aaF0.080726999999992818
aa(lp277
(lp278
F-12.577754974365234
aF-13.215180397033691
aF0.0
aa(lp279
F1002.6397094726562
aF0.0
aF0.0
aaF0.078829000000009961
aa(lp280
(lp281
F-12.505951881408691
aF-13.535369873046875
aF0.0
aa(lp282
F1002.6397094726562
aF0.0
aF0.0
aaF0.07876400000000354
aa(lp283
(lp284
F-12.434415817260742
aF-13.854363441467285
aF0.0
aa(lp285
F1002.6397094726562
aF0.0
aF0.0
aaF0.078470000000006854
aa(lp286
(lp287
F-12.362651824951172
aF-14.174378395080566
aF0.0
aa(lp288
F1002.6397094726562
aF0.0
aF0.0
aaF0.078720999999998417
aa(lp289
(lp290
F-12.291264533996582
aF-14.492709159851074
aF0.0
aa(lp291
F1002.6397094726562
aF0.0
aF0.0
aaF0.078306999999992064
aa(lp292
(lp293
F-12.218225479125977
aF-14.818408012390137
aF0.0
aa(lp294
F1002.6397094726562
aF0.0
aF0.0
aaF0.080118999999993099
aa(lp295
(lp296
F-12.146517753601074
aF-15.13817024230957
aF0.0
aa(lp297
F1002.6397094726562
aF0.0
aF0.0
aaF0.078659000000012844
aa(lp298
(lp299
F-12.074716567993164
aF-15.458347320556641
aF0.0
aa(lp300
F1002.6397094726562
aF0.0
aF0.0
aaF0.078760999999982692
aa(lp301
(lp302
F-12.002603530883789
aF-15.779914855957031
aF0.0
aa(lp303
F1002.6397094726562
aF0.0
aF0.0
aaF0.079103000000000298
aa(lp304
(lp305
F-11.930877685546875
aF-16.099758148193359
aF0.0
aa(lp306
F1002.6397094726562
aF0.0
aF0.0
aaF0.078679000000019192
aa(lp307
(lp308
F-11.85921573638916
aF-16.419313430786133
aF0.0
aa(lp309
F1002.6397094726562
aF0.0
aF0.0
aaF0.078607999999999498
aa(lp310
(lp311
F-11.78760814666748
aF-16.738628387451172
aF0.0
aa(lp312
F1002.6397094726562
aF0.0
aF0.0
aaF0.078548999999977928
aa(lp313
(lp314
F-11.716032981872559
aF-17.057798385620117
aF0.0
aa(lp315
F1002.6397094726562
aF0.0
aF0.0
aaF0.078513000000011976
aa(lp316
(lp317
F-11.644247055053711
aF-17.377908706665039
aF0.0
aa(lp318
F1002.6397094726562
aF0.0
aF0.0
aaF0.078744999999994666
aa(lp319
(lp320
F-11.571806907653809
aF-17.700937271118164
aF0.0
aa(lp321
F1002.6397094726562
aF0.0
aF0.0
aaF0.079462000000003405
aa(lp322
(lp323
F-11.499598503112793
aF-18.022932052612305
aF0.0
aa(lp324
F1002.6397094726562
aF0.0
aF0.0
aaF0.079207999999990994
aa(lp325
(lp326
F-11.427203178405762
aF-18.345754623413086
aF0.0
aa(lp327
F1002.6397094726562
aF0.0
aF0.0
aaF0.079412000000015956
aa(lp328
(lp329
F-11.353933334350586
aF-18.668704986572266
aF0.0
aa(lp330
F1002.9259033203125
aF0.0
aF0.0
aaF0.079487999999994605
aa(lp331
(lp332
F-11.278929710388184
aF-18.988265991210938
aF0.0
aa(lp333
F1003.491455078125
aF0.0
aF0.0
aaF0.078788999999997264
aa(lp334
(lp335
F-11.200037002563477
aF-19.306690216064453
aF0.0
aa(lp336
F1004.3395385742188
aF0.0
aF0.0
aaF0.078742999999999716
aa(lp337
(lp338
F-11.114849090576172
aF-19.626567840576172
aF0.0
aa(lp339
F1005.4854125976562
aF0.0
aF0.0
aaF0.079458000000013504
aa(lp340
(lp341
F-11.022369384765625
aF-19.944768905639648
aF0.0
aa(lp342
F1006.926025390625
aF0.0
aF0.0
aaF0.079539999999977004
aa(lp343
(lp344
F-10.921450614929199
aF-20.259250640869141
aF0.0
aa(lp345
F1008.6570434570312
aF0.0
aF0.0
aaF0.079280000000008163
aa(lp346
(lp347
F-10.809734344482422
aF-20.571647644042969
aF0.0
aa(lp348
F1010.6981811523438
aF0.0
aF0.0
aaF0.07963900000001127
aa(lp349
(lp350
F-10.685066223144531
aF-20.882030487060547
aF0.0
aa(lp351
F1013.0685424804688
aF0.0
aF0.0
aaF0.080291999999982641
aa(lp352
(lp353
F-10.539745330810547
aF-21.20111083984375
aF0.0
aa(lp354
F1015.90380859375
aF0.0
aF0.0
aaF0.084166000000007221
aa(lp355
(lp356
F-10.386313438415527
aF-21.496942520141602
aF0.0
aa(lp357
F1018.9228515625
aF0.0
aF0.0
aaF0.080000000000009328
aa(lp358
(lp359
F-10.216893196105957
aF-21.783456802368164
aF0.0
aa(lp360
F1022.2700805664062
aF0.0
aF0.0
aaF0.079906999999988335
aa(lp361
(lp362
F-10.030503273010254
aF-22.058635711669922
aF0.0
aa(lp363
F1025.9525146484375
aF0.0
aF0.0
aaF0.079790999999996989
aa(lp364
(lp365
F-9.8276729583740234
aF-22.319446563720703
aF0.0
aa(lp366
F1029.791259765625
aF0.0
aF0.0
aaF0.07932000000002086
aa(lp367
(lp368
F-9.6083784103393555
aF-22.565525054931641
aF0.0
aa(lp369
F1033.620849609375
aF0.0
aF0.0
aaF0.079131999999983924
aa(lp370
(lp371
F-9.3729438781738281
aF-22.796585083007812
aF0.0
aa(lp372
F1037.4534912109375
aF0.0
aF0.0
aaF0.079194999999995394
aa(lp373
(lp374
F-9.1222562789916992
aF-23.011661529541016
aF0.0
aa(lp375
F1041.2911376953125
aF0.0
aF0.0
aaF0.079298000000019561
aa(lp376
(lp377
F-8.8575315475463867
aF-23.209617614746094
aF0.0
aa(lp378
F1045.1317138671875
aF0.0
aF0.0
aaF0.079357999999981763
aa(lp379
(lp380
F-8.5797204971313477
aF-23.389652252197266
aF0.0
aa(lp381
F1048.9779052734375
aF0.0
aF0.0
aaF0.07947599999999648
aa(lp382
(lp383
F-8.2915706634521484
aF-23.550075531005859
aF0.0
aa(lp384
F1052.8096923828125
aF0.0
aF0.0
aaF0.079176000000014943
aa(lp385
(lp386
F-7.9924530982971191
aF-23.691268920898438
aF0.0
aa(lp387
F1056.6527099609375
aF0.0
aF0.0
aaF0.079408999999995108
aa(lp388
(lp389
F-7.685267448425293
aF-23.81184196472168
aF0.0
aa(lp390
F1060.48681640625
aF0.0
aF0.0
aaF0.079225000000004916
aa(lp391
(lp392
F-7.3715453147888184
aF-23.911367416381836
aF0.0
aa(lp393
F1064.310791015625
aF0.0
aF0.0
aaF0.079015999999992578
aa(lp394
(lp395
F-7.048825740814209
aF-23.990390777587891
aF0.0
aa(lp396
F1068.1710205078125
aF0.0
aF0.0
aaF0.079766000000003265
aa(lp397
(lp398
F-6.7231440544128418
aF-24.047279357910156
aF0.0
aa(lp399
F1072.01220703125
aF0.0
aF0.0
aaF0.079372000000003259
aa(lp400
(lp401
F-6.395263671875
aF-24.082159042358398
aF0.0
aa(lp402
F1075.84326171875
aF0.0
aF0.0
aaF0.079159999999998495
aa(lp403
(lp404
F-6.0657401084899902
aF-24.095054626464844
aF0.0
aa(lp405
F1079.6746826171875
aF0.0
aF0.0
aaF0.079170999999999145
aa(lp406
(lp407
F-5.7355003356933594
aF-24.085866928100586
aF0.0
aa(lp408
F1083.5130615234375
aF0.0
aF0.0
aaF0.079313000000010112
aa(lp409
(lp410
F-5.4053606986999512
aF-24.054428100585938
aF0.0
aa(lp411
F1087.3660888671875
aF0.0
aF0.0
aaF0.07961699999998155
aa(lp412
(lp413
F-5.0791501998901367
aF-24.001089096069336
aF0.0
aa(lp414
F1091.20654296875
aF0.0
aF0.0
aaF0.079355000000017759
aa(lp415
(lp416
F-4.7578005790710449
aF-23.926170349121094
aF0.0
aa(lp417
F1095.040283203125
aF0.0
aF0.0
aaF0.079216999999996693
aa(lp418
(lp419
F-4.4432916641235352
aF-23.831336975097656
aF0.0
aa(lp420
F1098.5191650390625
aF0.0
aF0.0
aaF0.078860999999986012
aa(lp421
(lp422
F-4.1361417770385742
aF-23.719005584716797
aF0.0
aa(lp423
F1101.6578369140625
aF0.0
aF0.0
aaF0.078511000000017026
aa(lp424
(lp425
F-3.8354983329772949
aF-23.590969085693359
aF0.0
aa(lp426
F1104.477783203125
aF0.0
aF0.0
aaF0.078442999999989757
aa(lp427
(lp428
F-3.5385749340057373
aF-23.447795867919922
aF0.0
aa(lp429
F1107.008544921875
aF0.0
aF0.0
aaF0.079129999999988973
aa(lp430
(lp431
F-3.2485976219177246
aF-23.2928466796875
aF0.0
aa(lp432
F1109.2269287109375
aF0.0
aF0.0
aaF0.078922000000002532
aa(lp433
(lp434
F-2.9646365642547607
aF-23.127674102783203
aF0.0
aa(lp435
F1111.1439208984375
aF0.0
aF0.0
aaF0.07885500000000116
aa(lp436
(lp437
F-2.6867642402648926
aF-22.954357147216797
aF0.0
aa(lp438
F1112.7620849609375
aF0.0
aF0.0
aaF0.078611000000020345
aa(lp439
(lp440
F-2.4127333164215088
aF-22.773473739624023
aF0.0
aa(lp441
F1114.093994140625
aF0.0
aF0.0
aaF0.078814999999988464
aa(lp442
(lp443
F-2.1435952186584473
aF-22.587705612182617
aF0.0
aa(lp444
F1115.1356201171875
aF0.0
aF0.0
aaF0.078496999999995529
aa(lp445
(lp446
F-1.8767993450164795
aF-22.39729118347168
aF0.0
aa(lp447
F1115.8958740234375
aF0.0
aF0.0
aaF0.07867699999999582
aa(lp448
(lp449
F-1.6134170293807983
aF-22.204986572265625
aF0.0
aa(lp450
F1116.3731689453125
aF0.0
aF0.0
aaF0.078278000000008438
aa(lp451
(lp452
F-1.3487473726272583
aF-22.00933837890625
aF0.0
aa(lp453
F1116.5718994140625
aF0.0
aF0.0
aaF0.079001999999999503
aa(lp454
(lp455
F-1.0837968587875366
aF-21.813072204589844
aF0.0
aa(lp456
F1116.4871826171875
aF0.0
aF0.0
aaF0.07914400000001047
aa(lp457
(lp458
F-0.81278836727142334
aF-21.614023208618164
aF0.0
aa(lp459
F1116.105712890625
aF0.0
aF0.0
aaF0.080710999999976371
aa(lp460
(lp461
F-0.52925503253936768
aF-21.40992546081543
aF0.0
aa(lp462
F1115.3895263671875
aF0.0
aF0.0
aaF0.083855000000025035
aa(lp463
(lp464
F-0.23053734004497528
aF-21.201988220214844
aF0.0
aa(lp465
F1114.2943115234375
aF0.0
aF0.0
aaF0.087362999999978916
aa(lp466
(lp467
F0.067499227821826935
aF-21.004079818725586
aF0.0
aa(lp468
F1112.877197265625
aF0.0
aF0.0
aaF0.085875000000012511
aa(lp469
(lp470
F0.3694731593132019
aF-20.815376281738281
aF0.0
aa(lp471
F1111.1253662109375
aF0.0
aF0.0
aaF0.085474000000001757
aa(lp472
(lp473
F0.68095755577087402
aF-20.635082244873047
aF0.0
aa(lp474
F1109.0008544921875
aF0.0
aF0.0
aaF0.086390999999988713
aa(lp475
(lp476
F1.006422758102417
aF-20.464010238647461
aF0.0
aa(lp477
F1106.4541015625
aF0.0
aF0.0
aaF0.088262000000011318
aa(lp478
(lp479
F1.3460352420806885
aF-20.305953979492188
aF0.0
aa(lp480
F1103.46044921875
aF0.0
aF0.0
aaF0.089921999999998212
aa(lp481
(lp482
F1.6984410285949707
aF-20.165468215942383
aF0.0
aa(lp483
F1100.0086669921875
aF0.0
aF0.0
aaF0.091073999999988706
aa(lp484
(lp485
F2.0576388835906982
aF-20.045318603515625
aF0.0
aa(lp486
F1096.9810791015625
aF0.0
aF0.0
aaF0.090923000000000462
aa(lp487
(lp488
F2.435805082321167
aF-19.93951416015625
aF0.0
aa(lp489
F1094.2803955078125
aF0.0
aF0.0
aaF0.094264000000006495
aa(lp490
(lp491
F2.8037817478179932
aF-19.85334587097168
aF0.0
aa(lp492
F1092.0782470703125
aF0.0
aF0.0
aaF0.090719000000003922
aa(lp493
(lp494
F3.1862936019897461
aF-19.777956008911133
aF0.0
aa(lp495
F1090.2210693359375
aF0.0
aF0.0
aaF0.093582999999992131
aa(lp496
(lp497
F3.560300350189209
aF-19.715293884277344
aF0.0
aa(lp498
F1088.80078125
aF0.0
aF0.0
aaF0.091024999999998732
aa(lp499
(lp500
F3.9419536590576172
aF-19.659780502319336
aF0.0
aa(lp501
F1087.7510986328125
aF0.0
aF0.0
aaF0.092572000000015128
aa(lp502
(lp503
F4.3176217079162598
aF-19.610828399658203
aF0.0
aa(lp504
F1087.0972900390625
aF0.0
aF0.0
aaF0.090933000000003636
aa(lp505
(lp506
F4.6989250183105469
aF-19.564289093017578
aF0.0
aa(lp507
F1086.8203125
aF0.0
aF0.0
aaF0.09220199999998295
aa(lp508
(lp509
F5.0799798965454102
aF-19.518712997436523
aF0.0
aa(lp510
F1086.8203125
aF0.0
aF0.0
aaF0.092115000000003652
aa(lp511
(lp512
F5.4611506462097168
aF-19.473125457763672
aF0.0
aa(lp513
F1086.8203125
aF0.0
aF0.0
aaF0.092142999999989803
aa(lp514
(lp515
F5.8486227989196777
aF-19.428144454956055
aF0.0
aa(lp516
F1086.4232177734375
aF0.0
aF0.0
aaF0.093628000000020625
aa(lp517
(lp518
F6.2314376831054688
aF-19.387683868408203
aF0.0
aa(lp519
F1085.6431884765625
aF0.0
aF0.0
aaF0.092397999999999689
aa(lp520
(lp521
F6.6141214370727539
aF-19.353803634643555
aF0.0
aa(lp522
F1084.4755859375
aF0.0
aF0.0
aaF0.09221499999997855
aa(lp523
(lp524
F6.9966187477111816
aF-19.326475143432617
aF0.0
aa(lp525
F1083.6978759765625
aF0.0
aF0.0
aaF0.09204400000001238
aa(lp526
(lp527
F7.3783998489379883
aF-19.30311393737793
aF0.0
aa(lp528
F1083.3052978515625
aF0.0
aF0.0
aaF0.091809000000008842
aa(lp529
(lp530
F7.7611846923828125
aF-19.281040191650391
aF0.0
aa(lp531
F1083.2955322265625
aF0.0
aF0.0
aaF0.092030999999988358
aa(lp532
(lp533
F8.1445159912109375
aF-19.258966445922852
aF0.0
aa(lp534
F1083.2955322265625
aF0.0
aF0.0
aaF0.092161999999998676
aa(lp535
(lp536
F8.5313587188720703
aF-19.236692428588867
aF0.0
aa(lp537
F1083.2955322265625
aF0.0
aF0.0
aaF0.093005999999999409
aa(lp538
(lp539
F8.9151067733764648
aF-19.214595794677734
aF0.0
aa(lp540
F1083.2955322265625
aF0.0
aF0.0
aaF0.092262000000001995
aa(lp541
(lp542
F9.2971487045288086
aF-19.192598342895508
aF0.0
aa(lp543
F1083.2955322265625
aF0.0
aF0.0
aaF0.091852000000013964
aa(lp544
(lp545
F9.6788873672485352
aF-19.170618057250977
aF0.0
aa(lp546
F1083.2955322265625
aF0.0
aF0.0
aaF0.091778999999999319
aa(lp547
(lp548
F10.061149597167969
aF-19.14860725402832
aF0.0
aa(lp549
F1083.2955322265625
aF0.0
aF0.0
aaF0.091904999999993839
aa(lp550
(lp551
F10.44338321685791
aF-19.126596450805664
aF0.0
aa(lp552
F1083.2955322265625
aF0.0
aF0.0
aaF0.09189799999998309
aa(lp553
(lp554
F10.824140548706055
aF-19.104673385620117
aF0.0
aa(lp555
F1083.2955322265625
aF0.0
aF0.0
aaF0.091542999999998306
aa(lp556
(lp557
F11.205192565917969
aF-19.082731246948242
aF0.0
aa(lp558
F1083.2955322265625
aF0.0
aF0.0
aaF0.091614000000018
aa(lp559
(lp560
F11.587322235107422
aF-19.060728073120117
aF0.0
aa(lp561
F1083.2955322265625
aF0.0
aF0.0
aaF0.091872999999989366
aa(lp562
(lp563
F11.97501277923584
aF-19.03840446472168
aF0.0
aa(lp564
F1083.2955322265625
aF0.0
aF0.0
aaF0.093209999999995949
aa(lp565
(lp566
F12.356826782226562
aF-19.016420364379883
aF0.0
aa(lp567
F1083.2955322265625
aF0.0
aF0.0
aaF0.091797000000010717
aa(lp568
(lp569
F12.737791061401367
aF-18.994483947753906
aF0.0
aa(lp570
F1083.2955322265625
aF0.0
aF0.0
aaF0.091592999999985755
aa(lp571
(lp572
F13.120003700256348
aF-18.972476959228516
aF0.0
aa(lp573
F1083.2955322265625
aF0.0
aF0.0
aaF0.091893000000024136
aa(lp574
(lp575
F13.502774238586426
aF-18.950435638427734
aF0.0
aa(lp576
F1083.2955322265625
aF0.0
aF0.0
aaF0.092026999999998457
aa(lp577
(lp578
F13.885016441345215
aF-18.928426742553711
aF0.0
aa(lp579
F1083.2955322265625
aF0.0
aF0.0
aaF0.091899999999978041
aa(lp580
(lp581
F14.266579627990723
aF-18.906455993652344
aF0.0
aa(lp582
F1083.2955322265625
aF0.0
aF0.0
aaF0.091737000000020094
aa(lp583
(lp584
F14.647830963134766
aF-18.883232116699219
aF0.0
aa(lp585
F1083.67626953125
aF0.0
aF0.0
aaF0.091679999999993475
aa(lp586
(lp587
F15.032761573791504
aF-18.855884552001953
aF0.0
aa(lp588
F1084.450927734375
aF0.0
aF0.0
aaF0.092626999999989953
aa(lp589
(lp590
F15.413727760314941
aF-18.824943542480469
aF0.0
aa(lp591
F1084.835693359375
aF0.0
aF0.0
aaF0.091743000000004946
aa(lp592
(lp593
F15.795064926147461
aF-18.792673110961914
aF0.0
aa(lp594
F1084.838623046875
aF0.0
aF0.0
aaF0.091857999999998816
aa(lp595
(lp596
F16.174566268920898
aF-18.760547637939453
aF0.0
aa(lp597
F1084.838623046875
aF0.0
aF0.0
aaF0.091416000000006312
aa(lp598
(lp599
F16.555412292480469
aF-18.728307723999023
aF0.0
aa(lp600
F1084.838623046875
aF0.0
aF0.0
aaF0.09174000000001252
aa(lp601
(lp602
F16.938478469848633
aF-18.695880889892578
aF0.0
aa(lp603
F1084.838623046875
aF0.0
aF0.0
aaF0.092274999999997595
aa(lp604
(lp605
F17.320995330810547
aF-18.662206649780273
aF0.0
aa(lp606
F1085.2235107421875
aF0.0
aF0.0
aaF0.092168999999981002
aa(lp607
(lp608
F17.701574325561523
aF-18.627407073974609
aF0.0
aa(lp609
F1085.225341796875
aF0.0
aF0.0
aaF0.091730000000009346
aa(lp610
(lp611
F18.099193572998047
aF-18.591045379638672
aF0.0
aa(lp612
F1085.225341796875
aF0.0
aF0.0
aaF0.09583699999998567
aa(lp613
(lp614
F18.490468978881836
aF-18.555261611938477
aF0.0
aa(lp615
F1085.225341796875
aF0.0
aF0.0
aaF0.094308000000009093
aa(lp616
(lp617
F18.875944137573242
aF-18.520008087158203
aF0.0
aa(lp618
F1085.225341796875
aF0.0
aF0.0
aaF0.092910000000014412
aa(lp619
(lp620
F19.256572723388672
aF-18.485198974609375
aF0.0
aa(lp621
F1085.225341796875
aF0.0
aF0.0
aaF0.091741999999979049
aa(lp622
(lp623
F19.638204574584961
aF-18.450298309326172
aF0.0
aa(lp624
F1085.225341796875
aF0.0
aF0.0
aaF0.091984000000021757
aa(lp625
(lp626
F20.018808364868164
aF-18.415491104125977
aF0.0
aa(lp627
F1085.225341796875
aF0.0
aF0.0
aaF0.091735999999994197
aa(lp628
(lp629
F20.399271011352539
aF-18.380697250366211
aF0.0
aa(lp630
F1085.225341796875
aF0.0
aF0.0
aaF0.091701999999994774
aa(lp631
(lp632
F20.806346893310547
aF-18.343467712402344
aF0.0
aa(lp633
F1085.225341796875
aF0.0
aF0.0
aaF0.098116000000001355
aa(lp634
(lp635
F21.186502456665039
aF-18.30870246887207
aF0.0
aa(lp636
F1085.225341796875
aF0.0
aF0.0
aaF0.091628000000011076
aa(lp637
(lp638
F21.568246841430664
aF-18.27379035949707
aF0.0
aa(lp639
F1085.225341796875
aF0.0
aF0.0
aaF0.09201099999998201
aa(lp640
(lp641
F21.949207305908203
aF-18.237668991088867
aF0.0
aa(lp642
F1085.6075439453125
aF0.0
aF0.0
aaF0.091851000000016489
aa(lp643
(lp644
F22.330009460449219
aF-18.197708129882812
aF0.0
aa(lp645
F1086.3739013671875
aF0.0
aF0.0
aaF0.091904999999993839
aa(lp646
(lp647
F22.71098518371582
aF-18.151252746582031
aF0.0
aa(lp648
F1087.5302734375
aF0.0
aF0.0
aaF0.092122999999983454
aa(lp649
(lp650
F23.09031867980957
aF-18.098522186279297
aF0.0
aa(lp651
F1088.297607421875
aF0.0
aF0.0
aaF0.091925999999997662
aa(lp652
(lp653
F23.467233657836914
aF-18.042264938354492
aF0.0
aa(lp654
F1088.6807861328125
aF0.0
aF0.0
aaF0.091472000000007034
aa(lp655
(lp656
F23.843978881835938
aF-17.984729766845703
aF0.0
aa(lp657
F1088.6849365234375
aF0.0
aF0.0
aaF0.09147699999999441
aa(lp658
(lp659
F24.220132827758789
aF-17.927270889282227
aF0.0
aa(lp660
F1088.6849365234375
aF0.0
aF0.0
aaF0.09133400000001439
aa(lp661
(lp662
F24.595531463623047
aF-17.869928359985352
aF0.0
aa(lp663
F1088.6849365234375
aF0.0
aF0.0
aaF0.091150999999993251
aa(lp664
(lp665
F24.970375061035156
aF-17.81266975402832
aF0.0
aa(lp666
F1088.6849365234375
aF0.0
aF0.0
aaF0.091015999999993033
aa(lp667
(lp668
F25.351158142089844
aF-17.75450325012207
aF0.0
aa(lp669
F1088.6849365234375
aF0.0
aF0.0
aaF0.092458000000018734
aa(lp670
(lp671
F25.727031707763672
aF-17.697088241577148
aF0.0
aa(lp672
F1088.6849365234375
aF0.0
aF0.0
aaF0.091265999999987121
aa(lp673
(lp674
F26.102350234985352
aF-17.63975715637207
aF0.0
aa(lp675
F1088.6849365234375
aF0.0
aF0.0
aaF0.091131000000015325
aa(lp676
(lp677
F26.477127075195312
aF-17.582508087158203
aF0.0
aa(lp678
F1088.6849365234375
aF0.0
aF0.0
aaF0.090999999999976586
aa(lp679
(lp680
F26.850038528442383
aF-17.525545120239258
aF0.0
aa(lp681
F1088.6849365234375
aF0.0
aF0.0
aaF0.090547000000011854
aa(lp682
(lp683
F27.223058700561523
aF-17.468564987182617
aF0.0
aa(lp684
F1088.6849365234375
aF0.0
aF0.0
aaF0.090573000000003054
aa(lp685
(lp686
F27.596687316894531
aF-17.411491394042969
aF0.0
aa(lp687
F1088.6849365234375
aF0.0
aF0.0
aaF0.090720999999998872
aa(lp688
(lp689
F27.970970153808594
aF-17.353067398071289
aF0.0
aa(lp690
F1089.0595703125
aF0.0
aF0.0
aaF0.090925999999992888
aa(lp691
(lp692
F28.342403411865234
aF-17.29136848449707
aF0.0
aa(lp693
F1089.802978515625
aF0.0
aF0.0
aaF0.090376000000017262
aa(lp694
(lp695
F28.715448379516602
aF-17.223123550415039
aF0.0
aa(lp696
F1090.9307861328125
aF0.0
aF0.0
aaF0.091027999999991158
aa(lp697
(lp698
F29.089103698730469
aF-17.14579963684082
aF0.0
aa(lp699
F1092.452880859375
aF0.0
aF0.0
aaF0.09158999999999333
aa(lp700
(lp701
F29.453836441040039
aF-17.058975219726562
aF0.0
aa(lp702
F1094.3271484375
aF0.0
aF0.0
aaF0.089996000000010332
aa(lp703
(lp704
F29.812078475952148
aF-16.959995269775391
aF0.0
aa(lp705
F1096.563232421875
aF0.0
aF0.0
aaF0.089214999999992647
aa(lp706
(lp707
F30.162948608398438
aF-16.846927642822266
aF0.0
aa(lp708
F1099.1600341796875
aF0.0
aF0.0
aaF0.088491000000001582
aa(lp709
(lp710
F30.516056060791016
aF-16.716388702392578
aF0.0
aa(lp711
F1101.4168701171875
aF0.0
aF0.0
aaF0.090367000000011563
aa(lp712
(lp713
F30.849184036254883
aF-16.579635620117188
aF0.0
aa(lp714
F1103.220703125
aF0.0
aF0.0
aaF0.086438999999981211
aa(lp715
(lp716
F31.173252105712891
aF-16.435762405395508
aF0.0
aa(lp717
F1104.657958984375
aF0.0
aF0.0
aaF0.085109000000013799
aa(lp718
(lp719
F31.497140884399414
aF-16.283262252807617
aF0.0
aa(lp720
F1105.767822265625
aF0.0
aF0.0
aaF0.085929999999987336
aa(lp721
(lp722
F31.814464569091797
aF-16.127458572387695
aF0.0
aa(lp723
F1106.5340576171875
aF0.0
aF0.0
aaF0.084853000000006437
aa(lp724
(lp725
F32.128860473632812
aF-15.966703414916992
aF0.0
aa(lp726
F1107.6282958984375
aF0.0
aF0.0
aaF0.084757999999990494
aa(lp727
(lp728
F32.433425903320312
aF-15.802548408508301
aF0.0
aa(lp729
F1109.019287109375
aF0.0
aF0.0
aaF0.083049000000013626
aa(lp730
(lp731
F32.730308532714844
aF-15.632073402404785
aF0.0
aa(lp732
F1110.7113037109375
aF0.0
aF0.0
aaF0.082176000000000846
aa(lp733
(lp734
F33.024829864501953
aF-15.449954986572266
aF0.0
aa(lp735
F1112.7503662109375
aF0.0
aF0.0
aaF0.083121000000002374
aa(lp736
(lp737
F33.311607360839844
aF-15.256999015808105
aF0.0
aa(lp738
F1115.1180419921875
aF0.0
aF0.0
aaF0.082971999999980658
aa(lp739
(lp740
F33.588645935058594
aF-15.052255630493164
aF0.0
aa(lp741
F1117.814208984375
aF0.0
aF0.0
aaF0.08269400000000042
aa(lp742
(lp743
F33.856101989746094
aF-14.833024978637695
aF0.0
aa(lp744
F1120.867919921875
aF0.0
aF0.0
aaF0.083018000000006628
aa(lp745
(lp746
F34.110748291015625
aF-14.599089622497559
aF0.0
aa(lp747
F1124.27734375
aF0.0
aF0.0
aaF0.083011999999993355
aa(lp748
(lp749
F34.349891662597656
aF-14.350044250488281
aF0.0
aa(lp750
F1128.046875
aF0.0
aF0.0
aaF0.082890000000017158
aa(lp751
(lp752
F34.572925567626953
aF-14.083625793457031
aF0.0
aa(lp753
F1132.0838623046875
aF0.0
aF0.0
aaF0.083415999999996535
aa(lp754
(lp755
F34.775836944580078
aF-13.803380012512207
aF0.0
aa(lp756
F1136.103759765625
aF0.0
aF0.0
aaF0.083065000000001651
aa(lp757
(lp758
F34.958759307861328
aF-13.509320259094238
aF0.0
aa(lp759
F1140.12744140625
aF0.0
aF0.0
aaF0.083142000000006197
aa(lp760
(lp761
F35.121044158935547
aF-13.202231407165527
aF0.0
aa(lp762
F1144.1630859375
aF0.0
aF0.0
aaF0.083386999999984487
aa(lp763
(lp764
F35.26190185546875
aF-12.883017539978027
aF0.0
aa(lp765
F1148.2169189453125
aF0.0
aF0.0
aaF0.083765999999993943
aa(lp766
(lp767
F35.381641387939453
aF-12.55288028717041
aF0.0
aa(lp768
F1151.91162109375
aF0.0
aF0.0
aaF0.084308000000018188
aa(lp769
(lp770
F35.480640411376953
aF-12.21722412109375
aF0.0
aa(lp771
F1155.222412109375
aF0.0
aF0.0
aaF0.084010000000003179
aa(lp772
(lp773
F35.562526702880859
aF-11.870245933532715
aF0.0
aa(lp774
F1158.220703125
aF0.0
aF0.0
aaF0.085581999999984879
aa(lp775
(lp776
F35.626529693603516
aF-11.524136543273926
aF0.0
aa(lp777
F1160.8250732421875
aF0.0
aF0.0
aaF0.08449200000000838
aa(lp778
(lp779
F35.675819396972656
aF-11.17547607421875
aF0.0
aa(lp780
F1163.08203125
aF0.0
aF0.0
aaF0.084526000000007803
aa(lp781
(lp782
F35.712978363037109
aF-10.818673133850098
aF0.0
aa(lp783
F1165.0267333984375
aF0.0
aF0.0
aaF0.086109999999987627
aa(lp784
(lp785
F35.739269256591797
aF-10.458154678344727
aF0.0
aa(lp786
F1166.6318359375
aF0.0
aF0.0
aaF0.086767000000005742
aa(lp787
(lp788
F35.756839752197266
aF-10.089810371398926
aF0.0
aa(lp789
F1167.9056396484375
aF0.0
aF0.0
aaF0.088514999999997832
aa(lp790
(lp791
F35.767406463623047
aF-9.7199068069458008
aF0.0
aa(lp792
F1168.821533203125
aF0.0
aF0.0
aaF0.088823999999985068
aa(lp793
(lp794
F35.773311614990234
aF-9.3433542251586914
aF0.0
aa(lp795
F1169.3812255859375
aF0.0
aF0.0
aaF0.090394000000000238
aa(lp796
(lp797
F35.774311065673828
aF-8.9661722183227539
aF0.0
aa(lp798
F1170.3154296875
aF0.0
aF0.0
aaF0.090535000000013729
aa(lp799
(lp800
F35.767948150634766
aF-8.5898675918579102
aF0.0
aa(lp801
F1171.622314453125
aF0.0
aF0.0
aaF0.090337999999999516
aa(lp802
(lp803
F35.751621246337891
aF-8.21160888671875
aF0.0
aa(lp804
F1173.3206787109375
aF0.0
aF0.0
aaF0.09087999999999534
aa(lp805
(lp806
F35.722640991210938
aF-7.8323941230773926
aF0.0
aa(lp807
F1175.4193115234375
aF0.0
aF0.0
aaF0.091292000000006743
aa(lp808
(lp809
F35.681228637695312
aF-7.4554848670959473
aF0.0
aa(lp810
F1177.1214599609375
aF0.0
aF0.0
aaF0.091015999999993033
aa(lp811
(lp812
F35.630035400390625
aF-7.0807528495788574
aF0.0
aa(lp813
F1178.436279296875
aF0.0
aF0.0
aaF0.090783000000012867
aa(lp814
(lp815
F35.571571350097656
aF-6.7075881958007812
aF0.0
aa(lp816
F1179.3719482421875
aF0.0
aF0.0
aaF0.090663000000003199
aa(lp817
(lp818
F35.506679534912109
aF-6.326136589050293
aF0.0
aa(lp819
F1179.9373779296875
aF0.0
aF0.0
aaF0.092873999999991616
aa(lp820
(lp821
F35.439983367919922
aF-5.9488658905029297
aF0.0
aa(lp822
F1180.1136474609375
aF0.0
aF0.0
aaF0.09195899999999961
aa(lp823
(lp824
F35.371757507324219
aF-5.5663700103759766
aF0.0
aa(lp825
F1180.1136474609375
aF0.0
aF0.0
aaF0.093257999999988447
aa(lp826
(lp827
F35.304313659667969
aF-5.1882753372192383
aF0.0
aa(lp828
F1180.1136474609375
aF0.0
aF0.0
aaF0.09218499999999745
aa(lp829
(lp830
F35.237159729003906
aF-4.8117928504943848
aF0.0
aa(lp831
F1180.1136474609375
aF0.0
aF0.0
aaF0.091792000000023341
aa(lp832
(lp833
F35.170265197753906
aF-4.4367623329162598
aF0.0
aa(lp834
F1180.1136474609375
aF0.0
aF0.0
aaF0.091437999999979189
aa(lp835
(lp836
F35.103343963623047
aF-4.0615925788879395
aF0.0
aa(lp837
F1180.1136474609375
aF0.0
aF0.0
aaF0.091472000000007034
aa(lp838
(lp839
F35.036544799804688
aF-3.6871073246002197
aF0.0
aa(lp840
F1180.1136474609375
aF0.0
aF0.0
aaF0.091305000000002343
aa(lp841
(lp842
F34.969753265380859
aF-3.3126635551452637
aF0.0
aa(lp843
F1180.1136474609375
aF0.0
aF0.0
aaF0.091294999999999168
aa(lp844
(lp845
F34.902576446533203
aF-2.9360456466674805
aF0.0
aa(lp846
F1180.1136474609375
aF0.0
aF0.0
aaF0.091824999999996867
aa(lp847
(lp848
F34.832584381103516
aF-2.5436475276947021
aF0.0
aa(lp849
F1180.1136474609375
aF0.0
aF0.0
aaF0.095672000000004351
aa(lp850
(lp851
F34.761844635009766
aF-2.1470818519592285
aF0.0
aa(lp852
F1180.1136474609375
aF0.0
aF0.0
aaF0.096687999999997151
aa(lp853
(lp854
F34.690803527832031
aF-1.7487934827804565
aF0.0
aa(lp855
F1180.1136474609375
aF0.0
aF0.0
aaF0.097107999999988356
aa(lp856
(lp857
F34.619178771972656
aF-1.3472604751586914
aF0.0
aa(lp858
F1180.1136474609375
aF0.0
aF0.0
aaF0.097899000000009215
aa(lp859
(lp860
F34.546760559082031
aF-0.94127684831619263
aF0.0
aa(lp861
F1180.1136474609375
aF0.0
aF0.0
aaF0.098983999999998337
aa(lp862
(lp863
F34.472919464111328
aF-0.52731090784072876
aF0.0
aa(lp864
F1180.1136474609375
aF0.0
aF0.0
aaF0.10093000000000212
aa(lp865
(lp866
F34.397697448730469
aF-0.10559642314910889
aF0.0
aa(lp867
F1180.1136474609375
aF0.0
aF0.0
aaF0.1028190000000077
aa(lp868
(lp869
F34.321746826171875
aF0.32020357251167297
aF0.0
aa(lp870
F1180.1136474609375
aF0.0
aF0.0
aaF0.10381499999999415
aa(lp871
(lp872
F34.245903015136719
aF0.74540877342224121
aF0.0
aa(lp873
F1180.1136474609375
aF0.0
aF0.0
aaF0.10366999999999076
aa(lp874
(lp875
F34.170852661132812
aF1.166146993637085
aF0.0
aa(lp876
F1180.1136474609375
aF0.0
aF0.0
aaF0.10258100000001173
aa(lp877
(lp878
F34.096439361572266
aF1.5833165645599365
aF0.0
aa(lp879
F1180.1136474609375
aF0.0
aF0.0
aaF0.10171099999999138
aa(lp880
(lp881
F34.023082733154297
aF1.9945834875106812
aF0.0
aa(lp882
F1180.1136474609375
aF0.0
aF0.0
aaF0.10027200000001495
aa(lp883
(lp884
F33.950885772705078
aF2.3993322849273682
aF0.0
aa(lp885
F1180.1136474609375
aF0.0
aF0.0
aaF0.098682999999990903
aa(lp886
(lp887
F33.879112243652344
aF2.8017144203186035
aF0.0
aa(lp888
F1180.1136474609375
aF0.0
aF0.0
aaF0.098105999999998181
aa(lp889
(lp890
F33.807079315185547
aF3.1971225738525391
aF0.0
aa(lp891
F1180.535400390625
aF0.0
aF0.0
aaF0.096470000000007536
aa(lp892
(lp893
F33.731353759765625
aF3.5884218215942383
aF0.0
aa(lp894
F1181.36962890625
aF0.0
aF0.0
aaF0.095664999999993602
aa(lp895
(lp896
F33.650920867919922
aF3.9676880836486816
aF0.0
aa(lp897
F1182.5775146484375
aF0.0
aF0.0
aaF0.09306000000000518
aa(lp898
(lp899
F33.561279296875
aF4.3445181846618652
aF0.0
aa(lp900
F1184.1842041015625
aF0.0
aF0.0
aaF0.092975999999989886
aa(lp901
(lp902
F33.460433959960938
aF4.7161288261413574
aF0.0
aa(lp903
F1186.181884765625
aF0.0
aF0.0
aaF0.092427000000011736
aa(lp904
(lp905
F33.345474243164062
aF5.0833392143249512
aF0.0
aa(lp906
F1188.5849609375
aF0.0
aF0.0
aaF0.092364999999997741
aa(lp907
(lp908
F33.213310241699219
aF5.4464445114135742
aF0.0
aa(lp909
F1191.4166259765625
aF0.0
aF0.0
aaF0.092758000000000271
aa(lp910
(lp911
F33.062397003173828
aF5.8012347221374512
aF0.0
aa(lp912
F1194.6689453125
aF0.0
aF0.0
aaF0.092555000000001206
aa(lp913
(lp914
F32.890678405761719
aF6.1454973220825195
aF0.0
aa(lp915
F1198.35107421875
aF0.0
aF0.0
aaF0.092356999999989517
aa(lp916
(lp917
F32.695850372314453
aF6.4773316383361816
aF0.0
aa(lp918
F1202.48486328125
aF0.0
aF0.0
aaF0.092382000000011663
aa(lp919
(lp920
F32.473594665527344
aF6.7977137565612793
aF0.0
aa(lp921
F1207.0155029296875
aF0.0
aF0.0
aaF0.093616999999991554
aa(lp922
(lp923
F32.229152679443359
aF7.0967926979064941
aF0.0
aa(lp924
F1211.5035400390625
aF0.0
aF0.0
aaF0.092736999999996447
aa(lp925
(lp926
F31.962482452392578
aF7.3754158020019531
aF0.0
aa(lp927
F1215.98486328125
aF0.0
aF0.0
aaF0.092595000000013902
aa(lp928
(lp929
F31.67302131652832
aF7.6338677406311035
aF0.0
aa(lp930
F1220.4937744140625
aF0.0
aF0.0
aaF0.093166999999990827
aa(lp931
(lp932
F31.355247497558594
aF7.8749728202819824
aF0.0
aa(lp933
F1225.1285400390625
aF0.0
aF0.0
aaF0.095769000000015245
aa(lp934
(lp935
F31.029485702514648
aF8.083500862121582
aF0.0
aa(lp936
F1229.622802734375
aF0.0
aF0.0
aaF0.092862999999990967
aa(lp937
(lp938
F30.689779281616211
aF8.2651853561401367
aF0.0
aa(lp939
F1234.0989990234375
aF0.0
aF0.0
aaF0.09249099999999226
aa(lp940
(lp941
F30.336271286010742
aF8.4200620651245117
aF0.0
aa(lp942
F1238.5833740234375
aF0.0
aF0.0
aaF0.092661000000017799
aa(lp943
(lp944
F29.968860626220703
aF8.547698974609375
aF0.0
aa(lp945
F1243.1026611328125
aF0.0
aF0.0
aaF0.093381999999988016
aa(lp946
(lp947
F29.594093322753906
aF8.6456460952758789
aF0.0
aa(lp948
F1247.603515625
aF0.0
aF0.0
aaF0.09299899999998866
aa(lp949
(lp950
F29.21339225769043
aF8.7137994766235352
aF0.0
aa(lp951
F1252.0972900390625
aF0.0
aF0.0
aaF0.092855000000011165
aa(lp952
(lp953
F28.828960418701172
aF8.7518882751464844
aF0.0
aa(lp954
F1256.5859375
aF0.0
aF0.0
aaF0.092748999999994572
aa(lp955
(lp956
F28.441106796264648
aF8.7597436904907227
aF0.0
aa(lp957
F1261.093505859375
aF0.0
aF0.0
aaF0.093138000000007201
aa(lp958
(lp959
F28.055625915527344
aF8.7372684478759766
aF0.0
aa(lp960
F1265.580078125
aF0.0
aF0.0
aaF0.09270599999998945
aa(lp961
(lp962
F27.671924591064453
aF8.6845016479492188
aF0.0
aa(lp963
F1270.080322265625
aF0.0
aF0.0
aaF0.092989000000013908
aa(lp964
(lp965
F27.29620361328125
aF8.6024818420410156
aF0.0
aa(lp966
F1274.548828125
aF0.0
aF0.0
aaF0.092330000000000842
aa(lp967
(lp968
F26.928102493286133
aF8.4930992126464844
aF0.0
aa(lp969
F1278.55029296875
aF0.0
aF0.0
aaF0.092190999999982301
aa(lp970
(lp971
F26.565916061401367
aF8.3588504791259766
aF0.0
aa(lp972
F1282.1251220703125
aF0.0
aF0.0
aaF0.092729000000016645
aa(lp973
(lp974
F26.216285705566406
aF8.2055320739746094
aF0.0
aa(lp975
F1285.2314453125
aF0.0
aF0.0
aaF0.091645999999994052
aa(lp976
(lp977
F25.87554931640625
aF8.0350933074951172
aF0.0
aa(lp978
F1287.91748046875
aF0.0
aF0.0
aaF0.091454999999993111
aa(lp979
(lp980
F25.542488098144531
aF7.8500328063964844
aF0.0
aa(lp981
F1290.1988525390625
aF0.0
aF0.0
aaF0.091461000000006384
aa(lp982
(lp983
F25.214286804199219
aF7.6516914367675781
aF0.0
aa(lp984
F1292.0927734375
aF0.0
aF0.0
aaF0.092048999999999756
aa(lp985
(lp986
F24.893537521362305
aF7.4446711540222168
aF0.0
aa(lp987
F1293.5858154296875
aF0.0
aF0.0
aaF0.091633999999995927
aa(lp988
(lp989
F24.576332092285156
aF7.2295823097229004
aF0.0
aa(lp990
F1294.6944580078125
aF0.0
aF0.0
aaF0.091992000000001559
aa(lp991
(lp992
F24.260622024536133
aF7.008056640625
aF0.0
aa(lp993
F1295.4183349609375
aF0.0
aF0.0
aaF0.092573000000012604
aa(lp994
(lp995
F23.94731330871582
aF6.783867359161377
aF0.0
aa(lp996
F1295.7530517578125
aF0.0
aF0.0
aaF0.092471999999983387
aa(lp997
(lp998
F23.635183334350586
aF6.5593547821044922
aF0.0
aa(lp999
F1295.7012939453125
aF0.0
aF0.0
aaF0.09228699999999572
aa(lp1000
(lp1001
F23.319429397583008
aF6.3343033790588379
aF0.0
aa(lp1002
F1295.256591796875
aF0.0
aF0.0
aaF0.093070000000008354
aa(lp1003
(lp1004
F23.002769470214844
aF6.113889217376709
aF0.0
aa(lp1005
F1294.424072265625
aF0.0
aF0.0
aaF0.092607000000012027
aa(lp1006
(lp1007
F22.682828903198242
aF5.8996033668518066
aF0.0
aa(lp1008
F1293.2017822265625
aF0.0
aF0.0
aaF0.092428999999978265
aa(lp1009
(lp1010
F22.357294082641602
aF5.6930780410766602
aF0.0
aa(lp1011
F1291.581787109375
aF0.0
aF0.0
aaF0.092538000000015705
aa(lp1012
(lp1013
F22.024629592895508
aF5.4965901374816895
aF0.0
aa(lp1014
F1289.5546875
aF0.0
aF0.0
aaF0.092740999999986348
aa(lp1015
(lp1016
F21.686517715454102
aF5.3142013549804688
aF0.0
aa(lp1017
F1287.1331787109375
aF0.0
aF0.0
aaF0.092217000000001922
aa(lp1018
(lp1019
F21.343317031860352
aF5.145850658416748
aF0.0
aa(lp1020
F1285.1256103515625
aF0.0
aF0.0
aaF0.091759000000021393
aa(lp1021
(lp1022
F20.995655059814453
aF4.9887247085571289
aF0.0
aa(lp1023
F1283.5155029296875
aF0.0
aF0.0
aaF0.091577999999995205
aa(lp1024
(lp1025
F20.64195442199707
aF4.8393020629882812
aF0.0
aa(lp1026
F1282.2882080078125
aF0.0
aF0.0
aaF0.092163999999993626
aa(lp1027
(lp1028
F20.283964157104492
aF4.695622444152832
aF0.0
aa(lp1029
F1281.447998046875
aF0.0
aF0.0
aaF0.092589999999998104
aa(lp1030
(lp1031
F19.925369262695312
aF4.5591473579406738
aF0.0
aa(lp1032
F1280.2237548828125
aF0.0
aF0.0
aaF0.092096999999992255
aa(lp1033
(lp1034
F19.564714431762695
aF4.4320082664489746
aF0.0
aa(lp1035
F1278.6136474609375
aF0.0
aF0.0
aaF0.091790999999997444
aa(lp1036
(lp1037
F19.199739456176758
aF4.316166877746582
aF0.0
aa(lp1038
F1276.6048583984375
aF0.0
aF0.0
aaF0.091914999999997013
aa(lp1039
(lp1040
F18.831995010375977
aF4.2121062278747559
aF0.0
aa(lp1041
F1274.994873046875
aF0.0
aF0.0
aaF0.091737000000020094
aa(lp1042
(lp1043
F18.462604522705078
aF4.1173620223999023
aF0.0
aa(lp1044
F1273.7762451171875
aF0.0
aF0.0
aaF0.091534999999990083
aa(lp1045
(lp1046
F18.089595794677734
aF4.0287899971008301
aF0.0
aa(lp1047
F1272.9390869140625
aF0.0
aF0.0
aaF0.092022000000011081
aa(lp1048
(lp1049
F17.717750549316406
aF3.9449002742767334
aF0.0
aa(lp1050
F1272.487548828125
aF0.0
aF0.0
aaF0.091496000000003283
aa(lp1051
(lp1052
F17.346038818359375
aF3.8628246784210205
aF0.0
aa(lp1053
F1272.4150390625
aF0.0
aF0.0
aaF0.091369999999980342
aa(lp1054
(lp1055
F16.972780227661133
aF3.7806558609008789
aF0.0
aa(lp1056
F1272.4150390625
aF0.0
aF0.0
aaF0.091737000000020094
aa(lp1057
(lp1058
F16.600147247314453
aF3.698624849319458
aF0.0
aa(lp1059
F1272.4150390625
aF0.0
aF0.0
aaF0.091582999999982581
aa(lp1060
(lp1061
F16.224521636962891
aF3.6159343719482422
aF0.0
aa(lp1062
F1272.4150390625
aF0.0
aF0.0
aaF0.092319000000000193
aa(lp1063
(lp1064
F15.850590705871582
aF3.5336177349090576
aF0.0
aa(lp1065
F1272.4150390625
aF0.0
aF0.0
aaF0.091902000000001413
aa(lp1066
(lp1067
F15.476693153381348
aF3.4513082504272461
aF0.0
aa(lp1068
F1272.4150390625
aF0.0
aF0.0
aaF0.091893999999993189
aa(lp1069
(lp1070
F15.103683471679688
aF3.3691937923431396
aF0.0
aa(lp1071
F1272.4150390625
aF0.0
aF0.0
aaF0.091676000000003574
aa(lp1072
(lp1073
F14.71939754486084
aF3.2845973968505859
aF0.0
aa(lp1074
F1272.4150390625
aF0.0
aF0.0
aaF0.094446999999999212
aa(lp1075
(lp1076
F14.332852363586426
aF3.1995036602020264
aF0.0
aa(lp1077
F1272.4150390625
aF0.0
aF0.0
aaF0.095002000000019057
aa(lp1078
(lp1079
F13.943744659423828
aF3.1138455867767334
aF0.0
aa(lp1080
F1272.4150390625
aF0.0
aF0.0
aaF0.095631999999991654
aa(lp1081
(lp1082
F13.554766654968262
aF3.029686450958252
aF0.0
aa(lp1083
F1272.0015869140625
aF0.0
aF0.0
aaF0.095525000000006008
aa(lp1084
(lp1085
F13.165253639221191
aF2.9498155117034912
aF0.0
aa(lp1086
F1271.1744384765625
aF0.0
aF0.0
aaF0.095438999999995763
aa(lp1087
(lp1088
F12.772270202636719
aF2.8736557960510254
aF0.0
aa(lp1089
F1270.761474609375
aF0.0
aF0.0
aaF0.096080999999994907
aa(lp1090
(lp1091
F12.381756782531738
aF2.799433708190918
aF0.0
aa(lp1092
F1270.761474609375
aF0.0
aF0.0
aaF0.095411000000009613
aa(lp1093
(lp1094
F11.990957260131836
aF2.7251574993133545
aF0.0
aa(lp1095
F1270.761474609375
aF0.0
aF0.0
aaF0.09548100000000341
aa(lp1096
(lp1097
F11.601913452148438
aF2.6512148380279541
aF0.0
aa(lp1098
F1270.761474609375
aF0.0
aF0.0
aaF0.095051999999978085
aa(lp1099
(lp1100
F11.210761070251465
aF2.5768716335296631
aF0.0
aa(lp1101
F1270.761474609375
aF0.0
aF0.0
aaF0.095567000000013655
aa(lp1102
(lp1103
F10.819699287414551
aF2.5025453567504883
aF0.0
aa(lp1104
F1270.761474609375
aF0.0
aF0.0
aaF0.095544999999983934
aa(lp1105
(lp1106
F10.423635482788086
aF2.4272685050964355
aF0.0
aa(lp1107
F1270.761474609375
aF0.0
aF0.0
aaF0.096767000000025069
aa(lp1108
(lp1109
F10.026994705200195
aF2.3518819808959961
aF0.0
aa(lp1110
F1270.761474609375
aF0.0
aF0.0
aaF0.096907999999981717
aa(lp1111
(lp1112
F9.6299028396606445
aF2.2764098644256592
aF0.0
aa(lp1113
F1270.761474609375
aF0.0
aF0.0
aaF0.097018000000016633
aa(lp1114
(lp1115
F9.2320213317871094
aF2.2007875442504883
aF0.0
aa(lp1116
F1270.761474609375
aF0.0
aF0.0
aaF0.097210999999984102
aa(lp1117
(lp1118
F8.8351106643676758
aF2.125349760055542
aF0.0
aa(lp1119
F1270.761474609375
aF0.0
aF0.0
aaF0.096974000000014035
aa(lp1120
(lp1121
F8.4333648681640625
aF2.0489931106567383
aF0.0
aa(lp1122
F1270.761474609375
aF0.0
aF0.0
aaF0.098154999999988155
aa(lp1123
(lp1124
F8.0336332321166992
aF1.9730191230773926
aF0.0
aa(lp1125
F1270.761474609375
aF0.0
aF0.0
aaF0.097663000000008202
aa(lp1126
(lp1127
F7.6340608596801758
aF1.8970755338668823
aF0.0
aa(lp1128
F1270.761474609375
aF0.0
aF0.0
aaF0.09762399999999298
aa(lp1129
(lp1130
F7.2345504760742188
aF1.8211435079574585
aF0.0
aa(lp1131
F1270.761474609375
aF0.0
aF0.0
aaF0.09760900000000243
aa(lp1132
(lp1133
F6.8356332778930664
aF1.7453244924545288
aF0.0
aa(lp1134
F1270.761474609375
aF0.0
aF0.0
aaF0.097463999999999038
aa(lp1135
(lp1136
F6.4301748275756836
aF1.6682621240615845
aF0.0
aa(lp1137
F1270.761474609375
aF0.0
aF0.0
aaF0.099062000000000358
aa(lp1138
(lp1139
F6.0219659805297852
aF1.5906769037246704
aF0.0
aa(lp1140
F1270.761474609375
aF0.0
aF0.0
aaF0.099734000000009024
aa(lp1141
(lp1142
F5.6144118309020996
aF1.5132161378860474
aF0.0
aa(lp1143
F1270.761474609375
aF0.0
aF0.0
aaF0.099573999999986659
aa(lp1144
(lp1145
F5.2031979560852051
aF1.4350600242614746
aF0.0
aa(lp1146
F1270.761474609375
aF0.0
aF0.0
aaF0.10046800000000326
aa(lp1147
(lp1148
F4.7869372367858887
aF1.3559445142745972
aF0.0
aa(lp1149
F1270.761474609375
aF0.0
aF0.0
aaF0.1017009999999882
aa(lp1150
(lp1151
F4.4021897315979004
aF1.2828184366226196
aF0.0
aa(lp1152
F1270.761474609375
aF0.0
aF0.0
aaF0.10077100000000565
aa(lp1153
(lp1154
F4.0448112487792969
aF1.2148942947387695
aF0.0
aa(lp1155
F1270.761474609375
aF0.0
aF0.0
aaF0.10087400000000139
aa(lp1156
(lp1157
F3.7170166969299316
aF1.1525927782058716
aF0.0
aa(lp1158
F1270.761474609375
aF0.0
aF0.0
aaF0.10026600000000167
aa(lp1159
(lp1160
F3.413322925567627
aF1.0948721170425415
aF0.0
aa(lp1161
F1270.761474609375
aF0.0
aF0.0
aaF0.10149000000000934
aa(lp1162
(lp1163
F3.1393113136291504
aF1.042792797088623
aF0.0
aa(lp1164
F1270.761474609375
aF0.0
aF0.0
aaF0.1008429999999944
aa(lp1165
(lp1166
F2.8930408954620361
aF0.99598604440689087
aF0.0
aa(lp1167
F1270.761474609375
aF0.0
aF0.0
aaF0.10084499999998935
aa.