(lp0
(lp1
(lp2
F26.305734634399414
aF3.2830641269683838
aF0.0
aa(lp3
F-20.230344772338867
aF0.0
aF0.0
aaF1.0000000000000001e-05
aa(lp4
(lp5
F26.305734634399414
aF3.2830641269683838
aF0.0
aa(lp6
F-20.230344772338867
aF0.0
aF0.0
aaF0.07245499999999476
aa(lp7
(lp8
F26.326784133911133
aF3.2753071784973145
aF0.0
aa(lp9
F-20.230344772338867
aF0.0
aF0.0
aaF0.089875000000003188
aa(lp10
(lp11
F26.370471954345703
aF3.2592065334320068
aF0.0
aa(lp12
F-20.230344772338867
aF0.0
aF0.0
aaF0.092121000000002715
aa(lp13
(lp14
F26.434484481811523
aF3.2356159687042236
aF0.0
aa(lp15
F-20.230344772338867
aF0.0
aF0.0
aaF0.09023599999999414
aa(lp16
(lp17
F26.522026062011719
aF3.2033545970916748
aF0.0
aa(lp18
F-20.230344772338867
aF0.0
aF0.0
aaF0.092185000000004555
aa(lp19
(lp20
F26.632230758666992
aF3.1627404689788818
aF0.0
aa(lp21
F-20.230344772338867
aF0.0
aF0.0
aaF0.092549000000002143
aa(lp22
(lp23
F26.765726089477539
aF3.1135439872741699
aF0.0
aa(lp24
F-20.230344772338867
aF0.0
aF0.0
aaF0.093126999999999446
aa(lp25
(lp26
F26.922006607055664
aF3.0559496879577637
aF0.0
aa(lp27
F-20.230344772338867
aF0.0
aF0.0
aaF0.09322500000000071
aa(lp28
(lp29
F27.100046157836914
aF2.9903371334075928
aF0.0
aa(lp30
F-20.230344772338867
aF0.0
aF0.0
aaF0.092812999999996412
aa(lp31
(lp32
F27.301036834716797
aF2.9182333946228027
aF0.0
aa(lp33
F-19.239507675170898
aF0.0
aF0.0
aaF0.092761999999997277
aa(lp34
(lp35
F27.526983261108398
aF2.844235897064209
aF0.0
aa(lp36
F-17.027900695800781
aF0.0
aF0.0
aaF0.092881000000002364
aa(lp37
(lp38
F27.773876190185547
aF2.7769622802734375
aF0.0
aa(lp39
F-13.455954551696777
aF0.0
aF0.0
aaF0.09214700000000102
aa(lp40
(lp41
F28.02069091796875
aF2.7284548282623291
aF0.0
aa(lp42
F-8.7818460464477539
aF0.0
aF0.0
aaF0.09058800000000071
aa(lp43
(lp44
F28.285202026367188
aF2.7022693157196045
aF0.0
aa(lp45
F-2.5253860950469971
aF0.0
aF0.0
aaF0.095746999999999735
aa(lp46
(lp47
F28.545902252197266
aF2.7076776027679443
aF0.0
aa(lp48
F4.902338981628418
aF0.0
aF0.0
aaF0.093948000000001405
aa(lp49
(lp50
F28.803762435913086
aF2.7498366832733154
aF0.0
aa(lp51
F13.668594360351562
aF0.0
aF0.0
aaF0.09416399999999607
aa(lp52
(lp53
F29.051919937133789
aF2.8340632915496826
aF0.0
aa(lp54
F23.826559066772461
aF0.0
aF0.0
aaF0.094476000000004154
aa(lp55
(lp56
F29.279520034790039
aF2.963364839553833
aF0.0
aa(lp57
F35.375934600830078
aF0.0
aF0.0
aaF0.094404999999998671
aa(lp58
(lp59
F29.469236373901367
aF3.132152795791626
aF0.0
aa(lp60
F47.94232177734375
aF0.0
aF0.0
aaF0.091609000000002203
aa(lp61
(lp62
F29.624309539794922
aF3.3554942607879639
aF0.0
aa(lp63
F62.510463714599609
aF0.0
aF0.0
aaF0.098157999999994791
aa(lp64
(lp65
F29.71592903137207
aF3.6008870601654053
aF0.0
aa(lp66
F76.54217529296875
aF0.0
aF0.0
aaF0.094544000000003001
aa(lp67
(lp68
F29.745363235473633
aF3.8549582958221436
aF0.0
aa(lp69
F90.241851806640625
aF0.0
aF0.0
aaF0.092307000000002068
aa(lp70
(lp71
F29.711938858032227
aF4.1160984039306641
aF0.0
aa(lp72
F104.34526062011719
aF0.0
aF0.0
aaF0.095026999999998571
aa(lp73
(lp74
F29.613330841064453
aF4.3659205436706543
aF0.0
aa(lp75
F118.73454284667969
aF0.0
aF0.0
aaF0.096952999999996001
aa(lp76
(lp77
F29.466327667236328
aF4.571922779083252
aF0.0
aa(lp78
F132.28919982910156
aF0.0
aF0.0
aaF0.091330000000003173
aa(lp79
(lp80
F29.276308059692383
aF4.740664005279541
aF0.0
aa(lp81
F144.49887084960938
aF0.0
aF0.0
aaF0.091668999999999931
aa(lp82
(lp83
F29.05712890625
aF4.8676571846008301
aF0.0
aa(lp84
F155.32476806640625
aF0.0
aF0.0
aaF0.091337999999997185
aa(lp85
(lp86
F28.809345245361328
aF4.9566335678100586
aF0.0
aa(lp87
F165.17025756835938
aF0.0
aF0.0
aaF0.094905999999998533
aa(lp88
(lp89
F28.555490493774414
aF5.0044097900390625
aF0.0
aa(lp90
F173.51240539550781
aF0.0
aF0.0
aaF0.093084000000001429
aa(lp91
(lp92
F28.297006607055664
aF5.0177474021911621
aF0.0
aa(lp93
F180.58010864257812
aF0.0
aF0.0
aaF0.093247000000002009
aa(lp94
(lp95
F28.037837982177734
aF5.0019478797912598
aF0.0
aa(lp96
F186.39700317382812
aF0.0
aF0.0
aaF0.093523999999998983
aa(lp97
(lp98
F27.780500411987305
aF4.9626445770263672
aF0.0
aa(lp99
F190.97030639648438
aF0.0
aF0.0
aaF0.093751000000001403
aa(lp100
(lp101
F27.50811767578125
aF4.901216983795166
aF0.0
aa(lp102
F194.44700622558594
aF0.0
aF0.0
aaF0.10054599999999818
aa(lp103
(lp104
F27.254436492919922
aF4.8310704231262207
aF0.0
aa(lp105
F196.46701049804688
aF0.0
aF0.0
aaF0.094767000000001309
aa(lp106
(lp107
F27.004905700683594
aF4.7554740905761719
aF0.0
aa(lp108
F197.24148559570312
aF0.0
aF0.0
aaF0.093873999999996391
aa(lp109
(lp110
F26.756694793701172
aF4.678443431854248
aF0.0
aa(lp111
F197.24148559570312
aF0.0
aF0.0
aaF0.093570000000003636
aa(lp112
(lp113
F26.508895874023438
aF4.6015400886535645
aF0.0
aa(lp114
F197.24148559570312
aF0.0
aF0.0
aaF0.09341499999999707
aa(lp115
(lp116
F26.260219573974609
aF4.5272417068481445
aF0.0
aa(lp117
F196.02828979492188
aF0.0
aF0.0
aaF0.093444999999999487
aa(lp118
(lp119
F26.011037826538086
aF4.4612865447998047
aF0.0
aa(lp120
F193.62255859375
aF0.0
aF0.0
aaF0.092812000000006042
aa(lp121
(lp122
F25.762460708618164
aF4.4091281890869141
aF0.0
aa(lp123
F190.078125
aF0.0
aF0.0
aaF0.091460999999999279
aa(lp124
(lp125
F25.508123397827148
aF4.3748221397399902
aF0.0
aa(lp126
F185.28584289550781
aF0.0
aF0.0
aaF0.092426999999997525
aa(lp127
(lp128
F25.25445556640625
aF4.3645672798156738
aF0.0
aa(lp129
F179.343994140625
aF0.0
aF0.0
aaF0.091446000000001623
aa(lp130
(lp131
F24.992931365966797
aF4.384589672088623
aF0.0
aa(lp132
F171.90013122558594
aF0.0
aF0.0
aaF0.094500999999997878
aa(lp133
(lp134
F24.738285064697266
aF4.4408531188964844
aF0.0
aa(lp135
F163.18124389648438
aF0.0
aF0.0
aaF0.093984000000002885
aa(lp136
(lp137
F24.492515563964844
aF4.539881706237793
aF0.0
aa(lp138
F152.92666625976562
aF0.0
aF0.0
aaF0.095527000000000958
aa(lp139
(lp140
F24.277759552001953
aF4.6776223182678223
aF0.0
aa(lp141
F141.72251892089844
aF0.0
aF0.0
aaF0.092003999999999683
aa(lp142
(lp143
F24.091899871826172
aF4.852231502532959
aF0.0
aa(lp144
F131.8531494140625
aF0.0
aF0.0
aaF0.091928999999997194
aa(lp145
(lp146
F23.933935165405273
aF5.0580892562866211
aF0.0
aa(lp147
F123.14852142333984
aF0.0
aF0.0
aaF0.093512999999998334
aa(lp148
(lp149
F23.806854248046875
aF5.2830514907836914
aF0.0
aa(lp150
F115.77494812011719
aF0.0
aF0.0
aaF0.093089000000003017
aa(lp151
(lp152
F23.706140518188477
aF5.5238547325134277
aF0.0
aa(lp153
F109.61862945556641
aF0.0
aF0.0
aaF0.094021000000001839
aa(lp154
(lp155
F23.629064559936523
aF5.7732272148132324
aF0.0
aa(lp156
F104.73246765136719
aF0.0
aF0.0
aaF0.094002999999997547
aa(lp157
(lp158
F23.572568893432617
aF6.0187602043151855
aF0.0
aa(lp159
F101.18317413330078
aF0.0
aF0.0
aaF0.090726000000000459
aa(lp160
(lp161
F23.529109954833984
aF6.2654852867126465
aF0.0
aa(lp162
F98.796287536621094
aF0.0
aF0.0
aaF0.090205000000001354
aa(lp163
(lp164
F23.493267059326172
aF6.5151481628417969
aF0.0
aa(lp165
F97.543205261230469
aF0.0
aF0.0
aaF0.090811999999996493
aa(lp166
(lp167
F23.459293365478516
aF6.7729892730712891
aF0.0
aa(lp168
F97.46942138671875
aF0.0
aF0.0
aaF0.093635000000002952
aa(lp169
(lp170
F23.425243377685547
aF7.0326857566833496
aF0.0
aa(lp171
F97.46942138671875
aF0.0
aF0.0
aaF0.094300999999998344
aa(lp172
(lp173
F23.391218185424805
aF7.2922091484069824
aF0.0
aa(lp174
F97.46942138671875
aF0.0
aF0.0
aaF0.094238000000001085
aa(lp175
(lp176
F23.355072021484375
aF7.547236442565918
aF0.0
aa(lp177
F98.664337158203125
aF0.0
aF0.0
aaF0.092738999999998503
aa(lp178
(lp179
F23.311056137084961
aF7.8005356788635254
aF0.0
aa(lp180
F101.05157470703125
aF0.0
aF0.0
aaF0.092571000000003442
aa(lp181
(lp182
F23.253669738769531
aF8.0520172119140625
aF0.0
aa(lp183
F104.65748596191406
aF0.0
aF0.0
aaF0.092885999999996846
aa(lp184
(lp185
F23.176843643188477
aF8.3015947341918945
aF0.0
aa(lp186
F109.56190490722656
aF0.0
aF0.0
aaF0.094047000000000144
aa(lp187
(lp188
F23.069904327392578
aF8.5553131103515625
aF0.0
aa(lp189
F116.14794158935547
aF0.0
aF0.0
aaF0.099185000000002452
aa(lp190
(lp191
F22.929758071899414
aF8.7959518432617188
aF0.0
aa(lp192
F124.28448486328125
aF0.0
aF0.0
aaF0.10034499999999406
aa(lp193
(lp194
F22.754451751708984
aF9.0116796493530273
aF0.0
aa(lp195
F133.9114990234375
aF0.0
aF0.0
aaF0.1001990000000003
aa(lp196
(lp197
F22.542575836181641
aF9.1925573348999023
aF0.0
aa(lp198
F145.11422729492188
aF0.0
aF0.0
aaF0.10046000000000214
aa(lp199
(lp200
F22.29371452331543
aF9.3269510269165039
aF0.0
aa(lp201
F158.14463806152344
aF0.0
aF0.0
aaF0.10204899999999777
aa(lp202
(lp203
F22.022893905639648
aF9.397334098815918
aF0.0
aa(lp204
F172.7188720703125
aF0.0
aF0.0
aaF0.10101600000000525
aa(lp205
(lp206
F21.728059768676758
aF9.3941354751586914
aF0.0
aa(lp207
F188.52432250976562
aF0.0
aF0.0
aaF0.10649399999999469
aa(lp208
(lp209
F21.446098327636719
aF9.3162822723388672
aF0.0
aa(lp210
F202.34681701660156
aF0.0
aF0.0
aaF0.10557000000000409
aa(lp211
(lp212
F21.188570022583008
aF9.1772136688232422
aF0.0
aa(lp213
F214.39210510253906
aF0.0
aF0.0
aaF0.10556899999999951
aa(lp214
(lp215
F20.961301803588867
aF8.9892969131469727
aF0.0
aa(lp216
F224.77925109863281
aF0.0
aF0.0
aaF0.10631799999999851
aa(lp217
(lp218
F20.766921997070312
aF8.7644929885864258
aF0.0
aa(lp219
F233.52337646484375
aF0.0
aF0.0
aaF0.10710100000000404
aa(lp220
(lp221
F20.608697891235352
aF8.5209102630615234
aF0.0
aa(lp222
F240.46369934082031
aF0.0
aF0.0
aaF0.10464000000000022
aa(lp223
(lp224
F20.477592468261719
aF8.2619743347167969
aF0.0
aa(lp225
F245.82748413085938
aF0.0
aF0.0
aaF0.10453299999999326
aa(lp226
(lp227
F20.364707946777344
aF7.985814094543457
aF0.0
aa(lp228
F249.70684814453125
aF0.0
aF0.0
aaF0.10743300000000426
aa(lp229
(lp230
F20.268987655639648
aF7.7104663848876953
aF0.0
aa(lp231
F251.95436096191406
aF0.0
aF0.0
aaF0.10496099999999979
aa(lp232
(lp233
F20.18115234375
aF7.4349989891052246
aF0.0
aa(lp234
F252.67538452148438
aF0.0
aF0.0
aaF0.10409799999999729
aa(lp235
(lp236
F20.094924926757812
aF7.1585745811462402
aF0.0
aa(lp237
F252.67538452148438
aF0.0
aF0.0
aaF0.10425199999999928
aa(lp238
(lp239
F20.006589889526367
aF6.8753905296325684
aF0.0
aa(lp240
F252.67538452148438
aF0.0
aF0.0
aaF0.10680100000000119
aa(lp241
(lp242
F19.917789459228516
aF6.5907135009765625
aF0.0
aa(lp243
F252.67538452148438
aF0.0
aF0.0
aaF0.10736400000000083
aa(lp244
(lp245
F19.829362869262695
aF6.3072409629821777
aF0.0
aa(lp246
F252.67538452148438
aF0.0
aF0.0
aaF0.1069100000000031
aa(lp247
(lp248
F19.740455627441406
aF6.0222244262695312
aF0.0
aa(lp249
F252.67538452148438
aF0.0
aF0.0
aaF0.10749199999999741
aa(lp250
(lp251
F19.646039962768555
aF5.7195477485656738
aF0.0
aa(lp252
F252.67538452148438
aF0.0
aF0.0
aaF0.11415200000000107
aa(lp253
(lp254
F19.557121276855469
aF5.4344940185546875
aF0.0
aa(lp255
F252.67538452148438
aF0.0
aF0.0
aaF0.10750599999999759
aa(lp256
(lp257
F19.469518661499023
aF5.1536569595336914
aF0.0
aa(lp258
F252.67538452148438
aF0.0
aF0.0
aaF0.10591600000000449
aa(lp259
(lp260
F19.380765914916992
aF4.8691368103027344
aF0.0
aa(lp261
F252.67538452148438
aF0.0
aF0.0
aaF0.10730500000000058
aa(lp262
(lp263
F19.290582656860352
aF4.5800313949584961
aF0.0
aa(lp264
F252.67538452148438
aF0.0
aF0.0
aaF0.10903399999999801
aa(lp265
(lp266
F19.20490837097168
aF4.2908987998962402
aF0.0
aa(lp267
F254.3135986328125
aF0.0
aF0.0
aaF0.10857499999999869
aa(lp268
(lp269
F19.132221221923828
aF4.0007519721984863
aF0.0
aa(lp270
F257.5579833984375
aF0.0
aF0.0
aaF0.10770500000000675
aa(lp271
(lp272
F19.080287933349609
aF3.7063517570495605
aF0.0
aa(lp273
F262.43356323242188
aF0.0
aF0.0
aaF0.10766299999999911
aa(lp274
(lp275
F19.049278259277344
aF3.4084932804107666
aF0.0
aa(lp276
F265.67922973632812
aF0.0
aF0.0
aaF0.10783299999999622
aa(lp277
(lp278
F19.031032562255859
aF3.1109817028045654
aF0.0
aa(lp279
F267.30172729492188
aF0.0
aF0.0
aaF0.10731900000000076
aa(lp280
(lp281
F19.016923904418945
aF2.8110578060150146
aF0.0
aa(lp282
F267.31207275390625
aF0.0
aF0.0
aaF0.10810200000000629
aa(lp283
(lp284
F19.002973556518555
aF2.5138962268829346
aF0.0
aa(lp285
F267.31207275390625
aF0.0
aF0.0
aaF0.10710599999999852
aa(lp286
(lp287
F18.989004135131836
aF2.2163376808166504
aF0.0
aa(lp288
F267.31207275390625
aF0.0
aF0.0
aaF0.10724899999999275
aa(lp289
(lp290
F18.975051879882812
aF1.919170618057251
aF0.0
aa(lp291
F267.31207275390625
aF0.0
aF0.0
aaF0.10710800000000768
aa(lp292
(lp293
F18.961099624633789
aF1.6219868659973145
aF0.0
aa(lp294
F267.31207275390625
aF0.0
aF0.0
aaF0.10711399999999253
aa(lp295
(lp296
F18.947479248046875
aF1.3318674564361572
aF0.0
aa(lp297
F267.31207275390625
aF0.0
aF0.0
aaF0.10456800000001147
aa(lp298
(lp299
F18.933757781982422
aF1.0396033525466919
aF0.0
aa(lp300
F267.31207275390625
aF0.0
aF0.0
aaF0.10534099999999251
aa(lp301
(lp302
F18.920108795166016
aF0.74886244535446167
aF0.0
aa(lp303
F267.31207275390625
aF0.0
aF0.0
aaF0.10479200000000015
aa(lp304
(lp305
F18.906463623046875
aF0.45823532342910767
aF0.0
aa(lp306
F267.31207275390625
aF0.0
aF0.0
aaF0.10475100000000419
aa(lp307
(lp308
F18.892601013183594
aF0.1629522293806076
aF0.0
aa(lp309
F267.31207275390625
aF0.0
aF0.0
aaF0.10642900000000248
aa(lp310
(lp311
F18.878635406494141
aF-0.13450902700424194
aF0.0
aa(lp312
F267.31207275390625
aF0.0
aF0.0
aaF0.10721399999999585
aa(lp313
(lp314
F18.864692687988281
aF-0.43149581551551819
aF0.0
aa(lp315
F267.31207275390625
aF0.0
aF0.0
aaF0.10704300000000126
aa(lp316
(lp317
F18.850887298583984
aF-0.72558021545410156
aF0.0
aa(lp318
F267.31207275390625
aF0.0
aF0.0
aaF0.10599699999999894
aa(lp319
(lp320
F18.837020874023438
aF-1.0209132432937622
aF0.0
aa(lp321
F267.31207275390625
aF0.0
aF0.0
aaF0.10644699999999967
aa(lp322
(lp323
F18.823246002197266
aF-1.3143566846847534
aF0.0
aa(lp324
F267.31207275390625
aF0.0
aF0.0
aaF0.10576599999999951
aa(lp325
(lp326
F18.809358596801758
aF-1.6101337671279907
aF0.0
aa(lp327
F267.31207275390625
aF0.0
aF0.0
aaF0.10660699999999361
aa(lp328
(lp329
F18.791336059570312
aF-1.9063875675201416
aF0.0
aa(lp330
F265.72515869140625
aF0.0
aF0.0
aaF0.1068620000000035
aa(lp331
(lp332
F18.761184692382812
aF-2.2003998756408691
aF0.0
aa(lp333
F262.5640869140625
aF0.0
aF0.0
aaF0.10642300000000342
aa(lp334
(lp335
F18.710563659667969
aF-2.4926764965057373
aF0.0
aa(lp336
F257.78433227539062
aF0.0
aF0.0
aaF0.1068270000000066
aa(lp337
(lp338
F18.631519317626953
aF-2.779111385345459
aF0.0
aa(lp339
F251.36087036132812
aF0.0
aF0.0
aaF0.10703699999998799
aa(lp340
(lp341
F18.517074584960938
aF-3.0529847145080566
aF0.0
aa(lp342
F243.28153991699219
aF0.0
aF0.0
aaF0.10695500000001028
aa(lp343
(lp344
F18.357126235961914
aF-3.3114700317382812
aF0.0
aa(lp345
F233.220947265625
aF0.0
aF0.0
aaF0.10957999999999084
aa(lp346
(lp347
F18.156858444213867
aF-3.5296256542205811
aF0.0
aa(lp348
F221.67514038085938
aF0.0
aF0.0
aaF0.10680100000000119
aa(lp349
(lp350
F17.913808822631836
aF-3.6997253894805908
aF0.0
aa(lp351
F208.29740905761719
aF0.0
aF0.0
aaF0.10705100000000949
aa(lp352
(lp353
F17.631797790527344
aF-3.8053638935089111
aF0.0
aa(lp354
F192.77363586425781
aF0.0
aF0.0
aaF0.10875499999999898
aa(lp355
(lp356
F17.335939407348633
aF-3.8302884101867676
aF0.0
aa(lp357
F176.8572998046875
aF0.0
aF0.0
aaF0.10724099999999874
aa(lp358
(lp359
F17.026899337768555
aF-3.7668378353118896
aF0.0
aa(lp360
F159.93788146972656
aF0.0
aF0.0
aaF0.11399899999998946
aa(lp361
(lp362
F16.759899139404297
aF-3.6237809658050537
aF0.0
aa(lp363
F143.69766235351562
aF0.0
aF0.0
aaF0.10942300000000353
aa(lp364
(lp365
F16.551801681518555
aF-3.4223763942718506
aF0.0
aa(lp366
F128.1754150390625
aF0.0
aF0.0
aaF0.10458600000000866
aa(lp367
(lp368
F16.39927864074707
aF-3.1581676006317139
aF0.0
aa(lp369
F111.81839752197266
aF0.0
aF0.0
aaF0.11020999999999186
aa(lp370
(lp371
F16.328540802001953
aF-2.8735823631286621
aF0.0
aa(lp372
F96.099624633789062
aF0.0
aF0.0
aaF0.10591000000000543
aa(lp373
(lp374
F16.332950592041016
aF-2.578871488571167
aF0.0
aa(lp375
F82.185165405273438
aF0.0
aF0.0
aaF0.10637900000000082
aa(lp376
(lp377
F16.402399063110352
aF-2.2961909770965576
aF0.0
aa(lp378
F70.20953369140625
aF0.0
aF0.0
aaF0.10499199999999258
aa(lp379
(lp380
F16.524681091308594
aF-2.0329246520996094
aF0.0
aa(lp381
F59.962528228759766
aF0.0
aF0.0
aaF0.10465000000000339
aa(lp382
(lp383
F16.688329696655273
aF-1.7933523654937744
aF0.0
aa(lp384
F51.364631652832031
aF0.0
aF0.0
aaF0.10455500000000166
aa(lp385
(lp386
F16.883327484130859
aF-1.5778270959854126
aF0.0
aa(lp387
F44.360393524169922
aF0.0
aF0.0
aaF0.10470799999999907
aa(lp388
(lp389
F17.100606918334961
aF-1.3846060037612915
aF0.0
aa(lp390
F38.931201934814453
aF0.0
aF0.0
aaF0.10472499999999878
aa(lp391
(lp392
F17.343925476074219
aF-1.2016510963439941
aF0.0
aa(lp393
F34.949069976806641
aF0.0
aF0.0
aaF0.1096260000000026
aa(lp394
(lp395
F17.576250076293945
aF-1.045945405960083
aF0.0
aa(lp396
F32.711452484130859
aF0.0
aF0.0
aaF0.10070000000000016
aa(lp397
(lp398
F17.812488555908203
aF-0.89661157131195068
aF0.0
aa(lp399
F31.884963989257812
aF0.0
aF0.0
aaF0.10062399999999309
aa(lp400
(lp401
F18.055145263671875
aF-0.74379611015319824
aF0.0
aa(lp402
F32.517433166503906
aF0.0
aF0.0
aaF0.10324600000000965
aa(lp403
(lp404
F18.287528991699219
aF-0.58983558416366577
aF0.0
aa(lp405
F34.533718109130859
aF0.0
aF0.0
aaF0.10036799999999994
aa(lp406
(lp407
F18.511999130249023
aF-0.42529016733169556
aF0.0
aa(lp408
F37.95208740234375
aF0.0
aF0.0
aaF0.10021999999998991
aa(lp409
(lp410
F18.72108268737793
aF-0.24781464040279388
aF0.0
aa(lp411
F42.6983642578125
aF0.0
aF0.0
aaF0.098769000000001148
aa(lp412
(lp413
F18.916606903076172
aF-0.046331729739904404
aF0.0
aa(lp414
F49.021659851074219
aF0.0
aF0.0
aaF0.10113399999999866
aa(lp415
(lp416
F19.084197998046875
aF0.17508789896965027
aF0.0
aa(lp417
F56.734691619873047
aF0.0
aF0.0
aaF0.1000550000000086
aa(lp418
(lp419
F19.215770721435547
aF0.41499841213226318
aF0.0
aa(lp420
F65.782394409179688
aF0.0
aF0.0
aaF0.098615999999989531
aa(lp421
(lp422
F19.304990768432617
aF0.67536509037017822
aF0.0
aa(lp423
F76.38751220703125
aF0.0
aF0.0
aaF0.099234000000006636
aa(lp424
(lp425
F19.341072082519531
aF0.94772428274154663
aF0.0
aa(lp426
F88.519256591796875
aF0.0
aF0.0
aaF0.099101000000001369
aa(lp427
(lp428
F19.322418212890625
aF1.2244670391082764
aF0.0
aa(lp429
F99.193084716796875
aF0.0
aF0.0
aaF0.10000799999999936
aa(lp430
(lp431
F19.260103225708008
aF1.482133150100708
aF0.0
aa(lp432
F107.99845123291016
aF0.0
aF0.0
aaF0.095538000000001608
aa(lp433
(lp434
F19.159412384033203
aF1.7339857816696167
aF0.0
aa(lp435
F115.58480834960938
aF0.0
aF0.0
aaF0.09772599999999125
aa(lp436
(lp437
F19.029422760009766
aF1.9716283082962036
aF0.0
aa(lp438
F121.77208709716797
aF0.0
aF0.0
aaF0.097571000000013106
aa(lp439
(lp440
F18.877279281616211
aF2.1956424713134766
aF0.0
aa(lp441
F126.59403228759766
aF0.0
aF0.0
aaF0.097524999999987136
aa(lp442
(lp443
F18.708965301513672
aF2.4085001945495605
aF0.0
aa(lp444
F130.07565307617188
aF0.0
aF0.0
aaF0.097716000000002287
aa(lp445
(lp446
F18.530374526977539
aF2.6128766536712646
aF0.0
aa(lp447
F132.22038269042969
aF0.0
aF0.0
aaF0.097724000000010511
aa(lp448
(lp449
F18.344301223754883
aF2.8150534629821777
aF0.0
aa(lp450
F133.029296875
aF0.0
aF0.0
aaF0.098927999999997615
aa(lp451
(lp452
F18.155529022216797
aF3.0172798633575439
aF0.0
aa(lp453
F133.029296875
aF0.0
aF0.0
aaF0.099600999999989545
aa(lp454
(lp455
F17.963708877563477
aF3.2227692604064941
aF0.0
aa(lp456
F133.029296875
aF0.0
aF0.0
aaF0.10120800000001078
aa(lp457
(lp458
F17.772743225097656
aF3.4273450374603271
aF0.0
aa(lp459
F133.029296875
aF0.0
aF0.0
aaF0.10075799999999584
aa(lp460
(lp461
F17.57304573059082
aF3.6412756443023682
aF0.0
aa(lp462
F133.029296875
aF0.0
aF0.0
aaF0.10536500000000297
aa(lp463
(lp464
F17.379785537719727
aF3.8483104705810547
aF0.0
aa(lp465
F133.029296875
aF0.0
aF0.0
aaF0.10196899999999369
aa(lp466
(lp467
F17.184301376342773
aF4.0633811950683594
aF0.0
aa(lp468
F131.50770568847656
aF0.0
aF0.0
aaF0.10464200000000938
aa(lp469
(lp470
F16.998491287231445
aF4.2848615646362305
aF0.0
aa(lp471
F128.48194885253906
aF0.0
aF0.0
aaF0.10409799999999018
aa(lp472
(lp473
F16.825981140136719
aF4.5208034515380859
aF0.0
aa(lp474
F123.86338043212891
aF0.0
aF0.0
aaF0.10525999999999806
aa(lp475
(lp476
F16.678123474121094
aF4.7687182426452637
aF0.0
aa(lp477
F117.76070404052734
aF0.0
aF0.0
aaF0.10397599999999978
aa(lp478
(lp479
F16.549564361572266
aF5.0391678810119629
aF0.0
aa(lp480
F113.08782958984375
aF0.0
aF0.0
aaF0.10784200000000192
aa(lp481
(lp482
F16.440704345703125
aF5.3144335746765137
aF0.0
aa(lp483
F110.06721496582031
aF0.0
aF0.0
aaF0.106586000000004
aa(lp484
(lp485
F16.342678070068359
aF5.5935840606689453
aF0.0
aa(lp486
F108.63116455078125
aF0.0
aF0.0
aaF0.10652300000000674
aa(lp487
(lp488
F16.250255584716797
aF5.8677182197570801
aF0.0
aa(lp489
F108.63116455078125
aF0.0
aF0.0
aaF0.10415600000000007
aa(lp490
(lp491
F16.154434204101562
aF6.1519308090209961
aF0.0
aa(lp492
F108.63116455078125
aF0.0
aF0.0
aaF0.10798499999999615
aa(lp493
(lp494
F16.059553146362305
aF6.4333610534667969
aF0.0
aa(lp495
F108.63116455078125
aF0.0
aF0.0
aaF0.10692799999999318
aa(lp496
(lp497
F15.963289260864258
aF6.7188873291015625
aF0.0
aa(lp498
F108.63116455078125
aF0.0
aF0.0
aaF0.10848400000000107
aa(lp499
(lp500
F15.868374824523926
aF7.0004124641418457
aF0.0
aa(lp501
F108.63116455078125
aF0.0
aF0.0
aaF0.10696400000000177
aa(lp502
(lp503
F15.773209571838379
aF7.2826824188232422
aF0.0
aa(lp504
F108.63116455078125
aF0.0
aF0.0
aaF0.1072469999999978
aa(lp505
(lp506
F15.677607536315918
aF7.5662474632263184
aF0.0
aa(lp507
F108.63116455078125
aF0.0
aF0.0
aaF0.10773900000000618
aa(lp508
(lp509
F15.582201957702637
aF7.8492307662963867
aF0.0
aa(lp510
F108.63116455078125
aF0.0
aF0.0
aaF0.10751799999999571
aa(lp511
(lp512
F15.486927032470703
aF8.1318244934082031
aF0.0
aa(lp513
F108.63116455078125
aF0.0
aF0.0
aaF0.1073699999999999
aa(lp514
(lp515
F15.389761924743652
aF8.4200277328491211
aF0.0
aa(lp516
F108.63116455078125
aF0.0
aF0.0
aaF0.10950100000000555
aa(lp517
(lp518
F15.29173755645752
aF8.7107791900634766
aF0.0
aa(lp519
F108.63116455078125
aF0.0
aF0.0
aaF0.11046899999999164
aa(lp520
(lp521
F15.191553115844727
aF9.0079336166381836
aF0.0
aa(lp522
F108.63116455078125
aF0.0
aF0.0
aaF0.11290200000000221
aa(lp523
(lp524
F15.090675354003906
aF9.3071479797363281
aF0.0
aa(lp525
F108.63116455078125
aF0.0
aF0.0
aaF0.11368400000000316
aa(lp526
(lp527
F14.99120044708252
aF9.6022024154663086
aF0.0
aa(lp528
F108.63116455078125
aF0.0
aF0.0
aaF0.11210399999999902
aa(lp529
(lp530
F14.882966041564941
aF9.9066371917724609
aF0.0
aa(lp531
F110.51206207275391
aF0.0
aF0.0
aaF0.1163319999999967
aa(lp532
(lp533
F14.757329940795898
aF10.210695266723633
aF0.0
aa(lp534
F114.38845062255859
aF0.0
aF0.0
aaF0.1184699999999989
aa(lp535
(lp536
F14.608688354492188
aF10.499118804931641
aF0.0
aa(lp537
F120.14093780517578
aF0.0
aF0.0
aaF0.11686900000000515
aa(lp538
(lp539
F14.42735481262207
aF10.767996788024902
aF0.0
aa(lp540
F127.85103607177734
aF0.0
aF0.0
aaF0.11684999999999628
aa(lp541
(lp542
F14.201725959777832
aF11.01126766204834
aF0.0
aa(lp543
F137.83970642089844
aF0.0
aF0.0
aaF0.11960799999999631
aa(lp544
(lp545
F13.942682266235352
aF11.201606750488281
aF0.0
aa(lp546
F149.54518127441406
aF0.0
aF0.0
aaF0.11593500000000427
aa(lp547
(lp548
F13.653115272521973
aF11.32861328125
aF0.0
aa(lp549
F163.08956909179688
aF0.0
aF0.0
aaF0.11410600000000352
aa(lp550
(lp551
F13.340633392333984
aF11.378520011901855
aF0.0
aa(lp552
F178.76211547851562
aF0.0
aF0.0
aaF0.11428499999999213
aa(lp553
(lp554
F13.036300659179688
aF11.341249465942383
aF0.0
aa(lp555
F195.20196533203125
aF0.0
aF0.0
aaF0.11076800000000413
aa(lp556
(lp557
F12.758001327514648
aF11.221242904663086
aF0.0
aa(lp558
F211.450927734375
aF0.0
aF0.0
aaF0.10948199999999668
aa(lp559
(lp560
F12.523733139038086
aF11.027426719665527
aF0.0
aa(lp561
F227.75273132324219
aF0.0
aF0.0
aaF0.10983800000000736
aa(lp562
(lp563
F12.356966018676758
aF10.783130645751953
aF0.0
aa(lp564
F243.60881042480469
aF0.0
aF0.0
aaF0.10683500000000061
aa(lp565
(lp566
F12.262622833251953
aF10.498937606811523
aF0.0
aa(lp567
F259.6619873046875
aF0.0
aF0.0
aaF0.10816300000000149
aa(lp568
(lp569
F12.250518798828125
aF10.200003623962402
aF0.0
aa(lp570
F275.700927734375
aF0.0
aF0.0
aaF0.10806700000000229
aa(lp571
(lp572
F12.323341369628906
aF9.90472412109375
aF0.0
aa(lp573
F292.00689697265625
aF0.0
aF0.0
aaF0.10986599999999351
aa(lp574
(lp575
F12.472531318664551
aF9.6463584899902344
aF0.0
aa(lp576
F308.0008544921875
aF0.0
aF0.0
aaF0.1077639999999999
aa(lp577
(lp578
F12.678607940673828
aF9.4395656585693359
aF0.0
aa(lp579
F321.79989624023438
aF0.0
aF0.0
aaF0.10536400000000549
aa(lp580
(lp581
F12.925750732421875
aF9.2840070724487305
aF0.0
aa(lp582
F333.82546997070312
aF0.0
aF0.0
aaF0.10533200000000102
aa(lp583
(lp584
F13.205008506774902
aF9.1772708892822266
aF0.0
aa(lp585
F344.33932495117188
aF0.0
aF0.0
aaF0.10778699999999868
aa(lp586
(lp587
F13.497013092041016
aF9.1189756393432617
aF0.0
aa(lp588
F353.08090209960938
aF0.0
aF0.0
aaF0.10730999999999506
aa(lp589
(lp590
F13.798592567443848
aF9.1013097763061523
aF0.0
aa(lp591
F360.21389770507812
aF0.0
aF0.0
aaF0.10883499999999595
aa(lp592
(lp593
F14.095912933349609
aF9.1163854598999023
aF0.0
aa(lp594
F365.59170532226562
aF0.0
aF0.0
aaF0.10722200000000408
aa(lp595
(lp596
F14.392224311828613
aF9.155247688293457
aF0.0
aa(lp597
F369.35202026367188
aF0.0
aF0.0
aaF0.10761500000000661
aa(lp598
(lp599
F14.681745529174805
aF9.2084779739379883
aF0.0
aa(lp600
F371.48367309570312
aF0.0
aF0.0
aaF0.10599099999999988
aa(lp601
(lp602
F14.968989372253418
aF9.2683277130126953
aF0.0
aa(lp603
F372.05581665039062
aF0.0
aF0.0
aaF0.10563899999999331
aa(lp604
(lp605
F15.256320953369141
aF9.3271389007568359
aF0.0
aa(lp606
F371.07901000976562
aF0.0
aF0.0
aaF0.10559500000000492
aa(lp607
(lp608
F15.552203178405762
aF9.3780612945556641
aF0.0
aa(lp609
F368.451416015625
aF0.0
aF0.0
aaF0.10810299999999666
aa(lp610
(lp611
F15.847602844238281
aF9.410919189453125
aF0.0
aa(lp612
F364.2427978515625
aF0.0
aF0.0
aaF0.10703399999999556
aa(lp613
(lp614
F16.147121429443359
aF9.4176902770996094
aF0.0
aa(lp615
F358.3470458984375
aF0.0
aF0.0
aaF0.10791200000000993
aa(lp616
(lp617
F16.439138412475586
aF9.3903713226318359
aF0.0
aa(lp618
F350.9638671875
aF0.0
aF0.0
aaF0.10566799999999114
aa(lp619
(lp620
F16.727506637573242
aF9.3205356597900391
aF0.0
aa(lp621
F341.80902099609375
aF0.0
aF0.0
aaF0.10693699999999888
aa(lp622
(lp623
F17.001405715942383
aF9.2003870010375977
aF0.0
aa(lp624
F330.82058715820312
aF0.0
aF0.0
aaF0.10784899999999846
aa(lp625
(lp626
F17.245660781860352
aF9.0254144668579102
aF0.0
aa(lp627
F317.94760131835938
aF0.0
aF0.0
aaF0.10840300000000662
aa(lp628
(lp629
F17.439067840576172
aF8.8002414703369141
aF0.0
aa(lp630
F303.37234497070312
aF0.0
aF0.0
aaF0.10715799999999513
aa(lp631
(lp632
F17.567171096801758
aF8.5298824310302734
aF0.0
aa(lp633
F287.33370971679688
aF0.0
aF0.0
aaF0.10806500000000734
aa(lp634
(lp635
F17.615583419799805
aF8.2350692749023438
aF0.0
aa(lp636
F271.31732177734375
aF0.0
aF0.0
aaF0.10791500000000236
aa(lp637
(lp638
F17.581802368164062
aF7.9422922134399414
aF0.0
aa(lp639
F255.51899719238281
aF0.0
aF0.0
aaF0.10644599999998798
aa(lp640
(lp641
F17.470075607299805
aF7.6706061363220215
aF0.0
aa(lp642
F239.77232360839844
aF0.0
aF0.0
aaF0.10609799999999973
aa(lp643
(lp644
F17.290929794311523
aF7.434718132019043
aF0.0
aa(lp645
F225.7978515625
aF0.0
aF0.0
aaF0.10690800000000104
aa(lp646
(lp647
F17.063625335693359
aF7.2457704544067383
aF0.0
aa(lp648
F213.6727294921875
aF0.0
aF0.0
aaF0.10661800000000847
aa(lp649
(lp650
F16.807090759277344
aF7.1062464714050293
aF0.0
aa(lp651
F203.40866088867188
aF0.0
aF0.0
aaF0.10527899999999273
aa(lp652
(lp653
F16.531299591064453
aF7.0106892585754395
aF0.0
aa(lp654
F194.81221008300781
aF0.0
aF0.0
aaF0.1051840000000052
aa(lp655
(lp656
F16.238866806030273
aF6.9524307250976562
aF0.0
aa(lp657
F187.72174072265625
aF0.0
aF0.0
aaF0.10742299999999398
aa(lp658
(lp659
F15.948455810546875
aF6.9267787933349609
aF0.0
aa(lp660
F182.37397766113281
aF0.0
aF0.0
aaF0.10500300000000744
aa(lp661
(lp662
F15.651520729064941
aF6.9243960380554199
aF0.0
aa(lp663
F178.54559326171875
aF0.0
aF0.0
aaF0.10693000000000234
aa(lp664
(lp665
F15.360050201416016
aF6.9374403953552246
aF0.0
aa(lp666
F176.32943725585938
aF0.0
aF0.0
aaF0.10505099999999994
aa(lp667
(lp668
F15.060853958129883
aF6.9583535194396973
aF0.0
aa(lp669
F175.67385864257812
aF0.0
aF0.0
aaF0.10798399999999868
aa(lp670
(lp671
F14.765029907226562
aF6.9783072471618652
aF0.0
aa(lp672
F176.6085205078125
aF0.0
aF0.0
aaF0.10675000000000205
aa(lp673
(lp674
F14.459464073181152
aF6.9893274307250977
aF0.0
aa(lp675
F179.26042175292969
aF0.0
aF0.0
aaF0.11009500000000509
aa(lp676
(lp677
F14.167404174804688
aF6.9826822280883789
aF0.0
aa(lp678
F183.34652709960938
aF0.0
aF0.0
aaF0.1052009999999907
aa(lp679
(lp680
F13.877305030822754
aF6.9513168334960938
aF0.0
aa(lp681
F188.99510192871094
aF0.0
aF0.0
aaF0.10509700000001169
aa(lp682
(lp683
F13.586640357971191
aF6.8857583999633789
aF0.0
aa(lp684
F196.42526245117188
aF0.0
aF0.0
aaF0.10735300000000018
aa(lp685
(lp686
F13.311246871948242
aF6.7804145812988281
aF0.0
aa(lp687
F205.44047546386719
aF0.0
aF0.0
aaF0.10626699999999938
aa(lp688
(lp689
F13.06151008605957
aF6.6320796012878418
aF0.0
aa(lp690
F215.97738647460938
aF0.0
aF0.0
aaF0.10472599999999625
aa(lp691
(lp692
F12.84630012512207
aF6.4377017021179199
aF0.0
aa(lp693
F228.19935607910156
aF0.0
aF0.0
aaF0.10460699999999827
aa(lp694
(lp695
F12.680665969848633
aF6.1994004249572754
aF0.0
aa(lp696
F242.19717407226562
aF0.0
aF0.0
aaF0.1047460000000026
aa(lp697
(lp698
F12.581462860107422
aF5.9275398254394531
aF0.0
aa(lp699
F257.70831298828125
aF0.0
aF0.0
aaF0.10451099999999906
aa(lp700
(lp701
F12.554139137268066
aF5.6285161972045898
aF0.0
aa(lp702
F271.84954833984375
aF0.0
aF0.0
aaF0.1083820000000028
aa(lp703
(lp704
F12.594767570495605
aF5.335721492767334
aF0.0
aa(lp705
F283.95065307617188
aF0.0
aF0.0
aaF0.10662399999999332
aa(lp706
(lp707
F12.689879417419434
aF5.0604276657104492
aF0.0
aa(lp708
F294.1685791015625
aF0.0
aF0.0
aaF0.10500300000000744
aa(lp709
(lp710
F12.842037200927734
aF4.7830104827880859
aF0.0
aa(lp711
F303.31906127929688
aF0.0
aF0.0
aaF0.11403699999999299
aa(lp712
(lp713
F13.018529891967773
aF4.5467205047607422
aF0.0
aa(lp714
F310.19540405273438
aF0.0
aF0.0
aaF0.10624800000000471
aa(lp715
(lp716
F13.226016044616699
aF4.3233194351196289
aF0.0
aa(lp717
F315.57412719726562
aF0.0
aF0.0
aaF0.10981099999999026
aa(lp718
(lp719
F13.446833610534668
aF4.120236873626709
aF0.0
aa(lp720
F319.21737670898438
aF0.0
aF0.0
aaF0.10803000000001044
aa(lp721
(lp722
F13.677506446838379
aF3.9282054901123047
aF0.0
aa(lp723
F321.2288818359375
aF0.0
aF0.0
aaF0.10806700000000229
aa(lp724
(lp725
F13.91370964050293
aF3.739771842956543
aF0.0
aa(lp726
F321.60812377929688
aF0.0
aF0.0
aaF0.10878699999998924
aa(lp727
(lp728
F14.149103164672852
aF3.553255558013916
aF0.0
aa(lp729
F321.60812377929688
aF0.0
aF0.0
aaF0.10812900000000207
aa(lp730
(lp731
F14.381625175476074
aF3.363595724105835
aF0.0
aa(lp732
F319.98614501953125
aF0.0
aF0.0
aaF0.10803599999999529
aa(lp733
(lp734
F14.606030464172363
aF3.1640682220458984
aF0.0
aa(lp735
F316.73086547851562
aF0.0
aF0.0
aaF0.10812600000000964
aa(lp736
(lp737
F14.817648887634277
aF2.9468090534210205
aF0.0
aa(lp738
F311.76199340820312
aF0.0
aF0.0
aaF0.10922799999999848
aa(lp739
(lp740
F15.005507469177246
aF2.7101325988769531
aF0.0
aa(lp741
F305.1185302734375
aF0.0
aF0.0
aaF0.10885199999999566
aa(lp742
(lp743
F15.172741889953613
aF2.4486255645751953
aF0.0
aa(lp744
F300.07952880859375
aF0.0
aF0.0
aaF0.11179300000000263
aa(lp745
(lp746
F15.319155693054199
aF2.1783747673034668
aF0.0
aa(lp747
F296.8155517578125
aF0.0
aF0.0
aaF0.11067599999999482
aa(lp748
(lp749
F15.452239990234375
aF1.9059628248214722
aF0.0
aa(lp750
F295.25906372070312
aF0.0
aF0.0
aaF0.10915900000000216
aa(lp751
(lp752
F15.585989952087402
aF1.6224875450134277
aF0.0
aa(lp753
F295.25906372070312
aF0.0
aF0.0
aaF0.1128500000000056
aa(lp754
(lp755
F15.715675354003906
aF1.3476290702819824
aF0.0
aa(lp756
F295.25906372070312
aF0.0
aF0.0
aaF0.10941999999999689
aa(lp757
(lp758
F15.845833778381348
aF1.0717657804489136
aF0.0
aa(lp759
F295.25906372070312
aF0.0
aF0.0
aaF0.10981999999999596
aa(lp760
(lp761
F15.975299835205078
aF0.7859954833984375
aF0.0
aa(lp762
F293.48583984375
aF0.0
aF0.0
aaF0.11295700000000546
aa(lp763
(lp764
F16.088909149169922
aF0.50153034925460815
aF0.0
aa(lp765
F290.05545043945312
aF0.0
aF0.0
aaF0.11029899999999453
aa(lp766
(lp767
F16.183013916015625
aF0.20095360279083252
aF0.0
aa(lp768
F284.71322631835938
aF0.0
aF0.0
aaF0.11343799999999897
aa(lp769
(lp770
F16.243705749511719
aF-0.10762904584407806
aF0.0
aa(lp771
F277.540771484375
aF0.0
aF0.0
aaF0.11330200000000128
aa(lp772
(lp773
F16.260406494140625
aF-0.41796863079071045
aF0.0
aa(lp774
F268.6199951171875
aF0.0
aF0.0
aaF0.11200700000000234
aa(lp775
(lp776
F16.222789764404297
aF-0.73049581050872803
aF0.0
aa(lp777
F257.65341186523438
aF0.0
aF0.0
aaF0.11350500000000034
aa(lp778
(lp779
F16.117929458618164
aF-1.0350044965744019
aF0.0
aa(lp780
F244.34320068359375
aF0.0
aF0.0
aaF0.11621200000000124
aa(lp781
(lp782
F15.942757606506348
aF-1.3015472888946533
aF0.0
aa(lp783
F229.03103637695312
aF0.0
aF0.0
aaF0.11517500000000462
aa(lp784
(lp785
F15.712764739990234
aF-1.5127205848693848
aF0.0
aa(lp786
F216.08380126953125
aF0.0
aF0.0
aaF0.11265399999998886
aa(lp787
(lp788
F15.437803268432617
aF-1.6746405363082886
aF0.0
aa(lp789
F204.90226745605469
aF0.0
aF0.0
aaF0.11506700000000729
aa(lp790
(lp791
F15.138895988464355
aF-1.7852590084075928
aF0.0
aa(lp792
F195.71434020996094
aF0.0
aF0.0
aaF0.11487200000000224
aa(lp793
(lp794
F14.829596519470215
aF-1.8515914678573608
aF0.0
aa(lp795
F188.49429321289062
aF0.0
aF0.0
aaF0.11396500000000424
aa(lp796
(lp797
F14.508049964904785
aF-1.8841178417205811
aF0.0
aa(lp798
F183.05804443359375
aF0.0
aF0.0
aaF0.11640099999999302
aa(lp799
(lp800
F14.187658309936523
aF-1.8913981914520264
aF0.0
aa(lp801
F179.54539489746094
aF0.0
aF0.0
aaF0.1153989999999933
aa(lp802
(lp803
F13.872113227844238
aF-1.8743116855621338
aF0.0
aa(lp804
F174.25563049316406
aF0.0
aF0.0
aaF0.11381300000000431
aa(lp805
(lp806
F13.565744400024414
aF-1.8244891166687012
aF0.0
aa(lp807
F167.27091979980469
aF0.0
aF0.0
aaF0.11182100000000299
aa(lp808
(lp809
F13.26032543182373
aF-1.7293694019317627
aF0.0
aa(lp810
F158.1317138671875
aF0.0
aF0.0
aaF0.11529199999999344
aa(lp811
(lp812
F12.961616516113281
aF-1.5865108966827393
aF0.0
aa(lp813
F150.74906921386719
aF0.0
aF0.0
aaF0.11929300000001002
aa(lp814
(lp815
F12.698274612426758
aF-1.4231388568878174
aF0.0
aa(lp816
F145.62161254882812
aF0.0
aF0.0
aaF0.11161199999999065
aa(lp817
(lp818
F12.447427749633789
aF-1.240449070930481
aF0.0
aa(lp819
F142.24723815917969
aF0.0
aF0.0
aaF0.11174200000000349
aa(lp820
(lp821
F12.206293106079102
aF-1.0481683015823364
aF0.0
aa(lp822
F140.61508178710938
aF0.0
aF0.0
aaF0.11104200000000868
aa(lp823
(lp824
F11.968862533569336
aF-0.8532450795173645
aF0.0
aa(lp825
F140.61508178710938
aF0.0
aF0.0
aaF0.11059999999998775
aa(lp826
(lp827
F11.724825859069824
aF-0.65289843082427979
aF0.0
aa(lp828
F140.61508178710938
aF0.0
aF0.0
aaF0.11367700000000662
aa(lp829
(lp830
F11.484166145324707
aF-0.44893893599510193
aF0.0
aa(lp831
F138.82217407226562
aF0.0
aF0.0
aaF0.1135809999999932
aa(lp832
(lp833
F11.252148628234863
aF-0.23265194892883301
aF0.0
aa(lp834
F135.19709777832031
aF0.0
aF0.0
aaF0.11421900000000244
aa(lp835
(lp836
F11.040822982788086
aF-0.0021535442210733891
aF0.0
aa(lp837
F129.83335876464844
aF0.0
aF0.0
aaF0.11262700000000019
aa(lp838
(lp839
F10.858819961547852
aF0.24542915821075439
aF0.0
aa(lp840
F122.80748748779297
aF0.0
aF0.0
aaF0.11070100000000276
aa(lp841
(lp842
F10.712581634521484
aF0.5159534215927124
aF0.0
aa(lp843
F113.98150634765625
aF0.0
aF0.0
aaF0.11082699999999727
aa(lp844
(lp845
F10.60767650604248
aF0.79594999551773071
aF0.0
aa(lp846
F107.09669494628906
aF0.0
aF0.0
aaF0.1077160000000074
aa(lp847
(lp848
F10.533819198608398
aF1.0813078880310059
aF0.0
aa(lp849
F101.92557525634766
aF0.0
aF0.0
aaF0.10615999999999952
aa(lp850
(lp851
F10.48371696472168
aF1.3604671955108643
aF0.0
aa(lp852
F98.424049377441406
aF0.0
aF0.0
aaF0.10212900000000184
aa(lp853
(lp854
F10.447855949401855
aF1.6362502574920654
aF0.0
aa(lp855
F96.393722534179688
aF0.0
aF0.0
aaF0.10013299999999641
aa(lp856
(lp857
F10.418876647949219
aF1.9087399244308472
aF0.0
aa(lp858
F95.747512817382812
aF0.0
aF0.0
aaF0.098659999999992129
aa(lp859
(lp860
F10.392500877380371
aF2.1707909107208252
aF0.0
aa(lp861
F95.747512817382812
aF0.0
aF0.0
aaF0.094825000000011192
aa(lp862
(lp863
F10.365738868713379
aF2.4366781711578369
aF0.0
aa(lp864
F95.747512817382812
aF0.0
aF0.0
aaF0.096212999999988488
aa(lp865
(lp866
F10.339313507080078
aF2.699221134185791
aF0.0
aa(lp867
F95.747512817382812
aF0.0
aF0.0
aaF0.095003000000002322
aa(lp868
(lp869
F10.312799453735352
aF2.9626483917236328
aF0.0
aa(lp870
F95.747512817382812
aF0.0
aF0.0
aaF0.095323000000004418
aa(lp871
(lp872
F10.288873672485352
aF3.231083869934082
aF0.0
aa(lp873
F94.4393310546875
aF0.0
aF0.0
aaF0.097031999999995497
aa(lp874
(lp875
F10.274399757385254
aF3.4895088672637939
aF0.0
aa(lp876
F91.971900939941406
aF0.0
aF0.0
aaF0.093196000000002874
aa(lp877
(lp878
F10.268193244934082
aF3.7541530132293701
aF0.0
aa(lp879
F90.7149658203125
aF0.0
aF0.0
aaF0.095309999999994607
aa(lp880
(lp881
F10.264862060546875
aF4.0210824012756348
aF0.0
aa(lp882
F90.7149658203125
aF0.0
aF0.0
aaF0.096112000000001904
aa(lp883
(lp884
F10.261573791503906
aF4.2845702171325684
aF0.0
aa(lp885
F90.7149658203125
aF0.0
aF0.0
aaF0.09487300000000369
aa(lp886
(lp887
F10.25833797454834
aF4.5438804626464844
aF0.0
aa(lp888
F90.7149658203125
aF0.0
aF0.0
aaF0.093369000000006627
aa(lp889
(lp890
F10.255045890808105
aF4.8076906204223633
aF0.0
aa(lp891
F90.7149658203125
aF0.0
aF0.0
aaF0.094988999999995036
aa(lp892
(lp893
F10.254518508911133
aF5.0652909278869629
aF0.0
aa(lp894
F89.519821166992188
aF0.0
aF0.0
aaF0.092747999999997097
aa(lp895
(lp896
F10.262290000915527
aF5.3265442848205566
aF0.0
aa(lp897
F87.072532653808594
aF0.0
aF0.0
aaF0.094109999999997404
aa(lp898
(lp899
F10.284101486206055
aF5.5875167846679688
aF0.0
aa(lp900
F83.372138977050781
aF0.0
aF0.0
aaF0.094304000000004981
aa(lp901
(lp902
F10.326711654663086
aF5.851377010345459
aF0.0
aa(lp903
F78.281044006347656
aF0.0
aF0.0
aaF0.096261999999992673
aa(lp904
(lp905
F10.392508506774902
aF6.1005315780639648
aF0.0
aa(lp906
F72.133224487304688
aF0.0
aF0.0
aaF0.092825000000001642
aa(lp907
(lp908
F10.488604545593262
aF6.3429536819458008
aF0.0
aa(lp909
F64.619857788085938
aF0.0
aF0.0
aaF0.093956000000002524
aa(lp910
(lp911
F10.616192817687988
aF6.5663762092590332
aF0.0
aa(lp912
F55.922264099121094
aF0.0
aF0.0
aaF0.092722000000005897
aa(lp913
(lp914
F10.784461975097656
aF6.7721476554870605
aF0.0
aa(lp915
F45.528514862060547
aF0.0
aF0.0
aaF0.095833999999993244
aa(lp916
(lp917
F10.989303588867188
aF6.9416375160217285
aF0.0
aa(lp918
F33.681610107421875
aF0.0
aF0.0
aaF0.095893999999998078
aa(lp919
(lp920
F11.223943710327148
aF7.0615720748901367
aF0.0
aa(lp921
F20.465400695800781
aF0.0
aF0.0
aaF0.09508600000000593
aa(lp922
(lp923
F11.48068904876709
aF7.1227188110351562
aF0.0
aa(lp924
F6.3266682624816895
aF0.0
aF0.0
aaF0.095264999999994535
aa(lp925
(lp926
F11.74241828918457
aF7.119593620300293
aF0.0
aa(lp927
F-7.6948037147521973
aF0.0
aF0.0
aaF0.094474999999999573
aa(lp928
(lp929
F11.997272491455078
aF7.0524778366088867
aF0.0
aa(lp930
F-21.812904357910156
aF0.0
aF0.0
aaF0.095126000000004415
aa(lp931
(lp932
F12.227445602416992
aF6.9256682395935059
aF0.0
aa(lp933
F-35.890628814697266
aF0.0
aF0.0
aaF0.094853999999994817
aa(lp934
(lp935
F12.419357299804688
aF6.7472801208496094
aF0.0
aa(lp936
F-49.926498413085938
aF0.0
aF0.0
aaF0.094572000000010467
aa(lp937
(lp938
F12.565055847167969
aF6.5296635627746582
aF0.0
aa(lp939
F-62.467063903808594
aF0.0
aF0.0
aaF0.094477999999991999
aa(lp940
(lp941
F12.66225528717041
aF6.2894725799560547
aF0.0
aa(lp942
F-73.468994140625
aF0.0
aF0.0
aaF0.093433999999998837
aa(lp943
(lp944
F12.714936256408691
aF6.0350837707519531
aF0.0
aa(lp945
F-83.131172180175781
aF0.0
aF0.0
aaF0.093644000000008651
aa(lp946
(lp947
F12.727200508117676
aF5.7764711380004883
aF0.0
aa(lp948
F-91.438514709472656
aF0.0
aF0.0
aaF0.093296999999989458
aa(lp949
(lp950
F12.704588890075684
aF5.5164480209350586
aF0.0
aa(lp951
F-98.501655578613281
aF0.0
aF0.0
aaF0.094031000000012119
aa(lp952
(lp953
F12.653340339660645
aF5.2618160247802734
aF0.0
aa(lp954
F-104.25750732421875
aF0.0
aF0.0
aaF0.09355499999999177
aa(lp955
(lp956
F12.579639434814453
aF5.0131211280822754
aF0.0
aa(lp957
F-108.75680541992188
aF0.0
aF0.0
aaF0.093413000000009225
aa(lp958
(lp959
F12.489205360412598
aF4.7698311805725098
aF0.0
aa(lp960
F-112.024658203125
aF0.0
aF0.0
aaF0.093461999999999198
aa(lp961
(lp962
F12.389374732971191
aF4.5350971221923828
aF0.0
aa(lp963
F-114.0550537109375
aF0.0
aF0.0
aaF0.09184399999999153
aa(lp964
(lp965
F12.278556823730469
aF4.2916369438171387
aF0.0
aa(lp966
F-114.89296722412109
aF0.0
aF0.0
aaF0.096309000000001907
aa(lp967
(lp968
F12.168929100036621
aF4.0531129837036133
aF0.0
aa(lp969
F-114.47461700439453
aF0.0
aF0.0
aaF0.094514000000000584
aa(lp970
(lp971
F12.062211036682129
aF3.8091123104095459
aF0.0
aa(lp972
F-112.77169799804688
aF0.0
aF0.0
aaF0.095887999999999016
aa(lp973
(lp974
F11.967978477478027
aF3.5678682327270508
aF0.0
aa(lp975
F-109.900634765625
aF0.0
aF0.0
aaF0.093258000000002658
aa(lp976
(lp977
F11.88845157623291
aF3.3208777904510498
aF0.0
aa(lp978
F-105.79460144042969
aF0.0
aF0.0
aaF0.09344199999999285
aa(lp979
(lp980
F11.829731941223145
aF3.0691964626312256
aF0.0
aa(lp981
F-100.47074890136719
aF0.0
aF0.0
aaF0.093082000000006479
aa(lp982
(lp983
F11.797234535217285
aF2.8094561100006104
aF0.0
aa(lp984
F-93.792404174804688
aF0.0
aF0.0
aaF0.094299000000003394
aa(lp985
(lp986
F11.79776668548584
aF2.5523979663848877
aF0.0
aa(lp987
F-85.970466613769531
aF0.0
aF0.0
aaF0.092623000000000053
aa(lp988
(lp989
F11.834822654724121
aF2.3036677837371826
aF0.0
aa(lp990
F-77.082191467285156
aF0.0
aF0.0
aaF0.090631999999996202
aa(lp991
(lp992
F11.915033340454102
aF2.0588080883026123
aF0.0
aa(lp993
F-66.642326354980469
aF0.0
aF0.0
aaF0.092897000000004601
aa(lp994
(lp995
F12.040768623352051
aF1.8343340158462524
aF0.0
aa(lp996
F-54.848464965820312
aF0.0
aF0.0
aaF0.092797999999998756
aa(lp997
(lp998
F12.213266372680664
aF1.6414055824279785
aF0.0
aa(lp999
F-41.551605224609375
aF0.0
aF0.0
aaF0.093386999999989603
aa(lp1000
(lp1001
F12.434657096862793
aF1.4900037050247192
aF0.0
aa(lp1002
F-27.182214736938477
aF0.0
aF0.0
aaF0.096819000000007469
aa(lp1003
(lp1004
F12.668186187744141
aF1.3996250629425049
aF0.0
aa(lp1005
F-15.131994247436523
aF0.0
aF0.0
aaF0.090322999999994755
aa(lp1006
(lp1007
F12.920783042907715
aF1.3566545248031616
aF0.0
aa(lp1008
F-4.1768984794616699
aF0.0
aF0.0
aaF0.092392000000000626
aa(lp1009
(lp1010
F13.176680564880371
aF1.3594632148742676
aF0.0
aa(lp1011
F5.4345579147338867
aF0.0
aF0.0
aaF0.092246999999997234
aa(lp1012
(lp1013
F13.42929744720459
aF1.4021776914596558
aF0.0
aa(lp1014
F13.759963989257812
aF0.0
aF0.0
aaF0.09232400000000178
aa(lp1015
(lp1016
F13.677427291870117
aF1.4796121120452881
aF0.0
aa(lp1017
F20.903444290161133
aF0.0
aF0.0
aaF0.093646000000003601
aa(lp1018
(lp1019
F13.913193702697754
aF1.5836814641952515
aF0.0
aa(lp1020
F26.730669021606445
aF0.0
aF0.0
aaF0.092826999999996593
aa(lp1021
(lp1022
F14.138221740722656
aF1.7085431814193726
aF0.0
aa(lp1023
F31.31866455078125
aF0.0
aF0.0
aaF0.09267999999999825
aa(lp1024
(lp1025
F14.35513973236084
aF1.8494691848754883
aF0.0
aa(lp1026
F34.702922821044922
aF0.0
aF0.0
aaF0.0931470000000129
aa(lp1027
(lp1028
F14.563381195068359
aF1.9995672702789307
aF0.0
aa(lp1029
F36.864181518554688
aF0.0
aF0.0
aaF0.092426999999997525
aa(lp1030
(lp1031
F14.763607978820801
aF2.1523847579956055
aF0.0
aa(lp1032
F37.839328765869141
aF0.0
aF0.0
aaF0.090687999999996924
aa(lp1033
(lp1034
F14.970970153808594
aF2.3128147125244141
aF0.0
aa(lp1035
F37.616668701171875
aF0.0
aF0.0
aaF0.094394000000005127
aa(lp1036
(lp1037
F15.177541732788086
aF2.4679450988769531
aF0.0
aa(lp1038
F36.194854736328125
aF0.0
aF0.0
aaF0.093012999999995946
aa(lp1039
(lp1040
F15.39087963104248
aF2.6165933609008789
aF0.0
aa(lp1041
F33.540603637695312
aF0.0
aF0.0
aaF0.093624999999999778
aa(lp1042
(lp1043
F15.615507125854492
aF2.7614812850952148
aF0.0
aa(lp1044
F32.104480743408203
aF0.0
aF0.0
aaF0.09624100000000306
aa(lp1045
(lp1046
F15.83649730682373
aF2.8996584415435791
aF0.0
aa(lp1047
F31.927978515625
aF0.0
aF0.0
aaF0.093838000000002017
aa(lp1048
(lp1049
F16.058828353881836
aF3.0381972789764404
aF0.0
aa(lp1050
F31.927978515625
aF0.0
aF0.0
aaF0.094315999999988895
aa(lp1051
(lp1052
F16.28010368347168
aF3.1760795116424561
aF0.0
aa(lp1053
F31.927978515625
aF0.0
aF0.0
aaF0.093869000000009015
aa(lp1054
(lp1055
F16.50123405456543
aF3.3138706684112549
aF0.0
aa(lp1056
F31.927978515625
aF0.0
aF0.0
aaF0.093806999999995019
aa(lp1057
(lp1058
F16.721757888793945
aF3.4512841701507568
aF0.0
aa(lp1059
F31.927978515625
aF0.0
aF0.0
aaF0.093550000000004394
aa(lp1060
(lp1061
F16.936769485473633
aF3.5852632522583008
aF0.0
aa(lp1062
F31.927978515625
aF0.0
aF0.0
aaF0.091211999999995561
aa(lp1063
(lp1064
F17.157749176025391
aF3.7197551727294922
aF0.0
aa(lp1065
F30.722705841064453
aF0.0
aF0.0
aaF0.093140000000002152
aa(lp1066
(lp1067
F17.38572883605957
aF3.8487007617950439
aF0.0
aa(lp1068
F28.262483596801758
aF0.0
aF0.0
aaF0.094307999999994882
aa(lp1069
(lp1070
F17.618444442749023
aF3.964360237121582
aF0.0
aa(lp1071
F24.59227180480957
aF0.0
aF0.0
aaF0.093579999999999705
aa(lp1072
(lp1073
F17.857244491577148
aF4.0675554275512695
aF0.0
aa(lp1074
F22.149887084960938
aF0.0
aF0.0
aaF0.093669000000002375
aa(lp1075
(lp1076
F18.097196578979492
aF4.1622695922851562
aF0.0
aa(lp1077
F20.93067741394043
aF0.0
aF0.0
aaF0.092880000000004889
aa(lp1078
(lp1079
F18.337482452392578
aF4.2541160583496094
aF0.0
aa(lp1080
F20.906728744506836
aF0.0
aF0.0
aaF0.09261700000000099
aa(lp1081
(lp1082
F18.583471298217773
aF4.3480825424194336
aF0.0
aa(lp1083
F20.906728744506836
aF0.0
aF0.0
aaF0.094806999999999794
aa(lp1084
(lp1085
F18.826473236083984
aF4.4409089088439941
aF0.0
aa(lp1086
F20.906728744506836
aF0.0
aF0.0
aaF0.093655999999992565
aa(lp1087
(lp1088
F19.063962936401367
aF4.5316295623779297
aF0.0
aa(lp1089
F20.906728744506836
aF0.0
aF0.0
aaF0.091531999999997657
aa(lp1090
(lp1091
F19.306835174560547
aF4.6244058609008789
aF0.0
aa(lp1092
F20.906728744506836
aF0.0
aF0.0
aaF0.093606000000005116
aa(lp1093
(lp1094
F19.549747467041016
aF4.7171978950500488
aF0.0
aa(lp1095
F20.906728744506836
aF0.0
aF0.0
aaF0.093621999999993141
aa(lp1096
(lp1097
F19.794443130493164
aF4.810671329498291
aF0.0
aa(lp1098
F20.906728744506836
aF0.0
aF0.0
aaF0.094309000000006568
aa(lp1099
(lp1100
F20.045860290527344
aF4.9067120552062988
aF0.0
aa(lp1101
F20.906728744506836
aF0.0
aF0.0
aaF0.09689900000000444
aa(lp1102
(lp1103
F20.283391952514648
aF4.9974484443664551
aF0.0
aa(lp1104
F20.906728744506836
aF0.0
aF0.0
aaF0.091547999999999893
aa(lp1105
(lp1106
F20.525566101074219
aF5.0899581909179688
aF0.0
aa(lp1107
F20.906728744506836
aF0.0
aF0.0
aaF0.093337000000002154
aa(lp1108
(lp1109
F20.767339706420898
aF5.1823153495788574
aF0.0
aa(lp1110
F20.906728744506836
aF0.0
aF0.0
aaF0.093182999999993063
aa(lp1111
(lp1112
F21.009340286254883
aF5.2747588157653809
aF0.0
aa(lp1113
F20.906728744506836
aF0.0
aF0.0
aaF0.093270000000000783
aa(lp1114
(lp1115
F21.252410888671875
aF5.3646817207336426
aF0.0
aa(lp1116
F19.696969985961914
aF0.0
aF0.0
aaF0.093313000000005905
aa(lp1117
(lp1118
F21.503374099731445
aF5.448394775390625
aF0.0
aa(lp1119
F17.197006225585938
aF0.0
aF0.0
aaF0.095257999999997997
aa(lp1120
(lp1121
F21.753961563110352
aF5.517204761505127
aF0.0
aa(lp1122
F13.512134552001953
aF0.0
aF0.0
aaF0.093576999999993069
aa(lp1123
(lp1124
F22.015068054199219
aF5.567842960357666
aF0.0
aa(lp1125
F8.4389142990112305
aF0.0
aF0.0
aaF0.095791000000002333
aa(lp1126
(lp1127
F22.271711349487305
aF5.5919241905212402
aF0.0
aa(lp1128
F2.282010555267334
aF0.0
aF0.0
aaF0.092852000000004528
aa(lp1129
(lp1130
F22.556943893432617
aF5.582453727722168
aF0.0
aa(lp1131
F-6.0853142738342285
aF0.0
aF0.0
aaF0.10284199999999226
aa(lp1132
(lp1133
F22.818466186523438
aF5.5396213531494141
aF0.0
aa(lp1134
F-12.5174560546875
aF0.0
aF0.0
aaF0.095462000000008748
aa(lp1135
(lp1136
F23.063617706298828
aF5.4739532470703125
aF0.0
aa(lp1137
F-17.473588943481445
aF0.0
aF0.0
aaF0.091404999999991451
aa(lp1138
(lp1139
F23.309005737304688
aF5.3875851631164551
aF0.0
aa(lp1140
F-21.30705451965332
aF0.0
aF0.0
aaF0.093679000000005549
aa(lp1141
(lp1142
F23.548149108886719
aF5.2880187034606934
aF0.0
aa(lp1143
F-23.901599884033203
aF0.0
aF0.0
aaF0.093272999999993209
aa(lp1144
(lp1145
F23.783380508422852
aF5.1803617477416992
aF0.0
aa(lp1146
F-25.282272338867188
aF0.0
aF0.0
aaF0.093143000000008788
aa(lp1147
(lp1148
F24.019672393798828
aF5.0683431625366211
aF0.0
aa(lp1149
F-25.445985794067383
aF0.0
aF0.0
aaF0.09414999999999589
aa(lp1150
(lp1151
F24.253915786743164
aF4.9568853378295898
aF0.0
aa(lp1152
F-25.445985794067383
aF0.0
aF0.0
aaF0.093397000000006988
aa(lp1153
(lp1154
F24.48687744140625
aF4.8460378646850586
aF0.0
aa(lp1155
F-25.445985794067383
aF0.0
aF0.0
aaF0.092885999999989741
aa(lp1156
(lp1157
F24.719217300415039
aF4.7354865074157715
aF0.0
aa(lp1158
F-25.445985794067383
aF0.0
aF0.0
aaF0.092638000000004814
aa(lp1159
(lp1160
F24.951410293579102
aF4.6250042915344238
aF0.0
aa(lp1161
F-25.445985794067383
aF0.0
aF0.0
aaF0.09257999999999493
aa(lp1162
(lp1163
F25.186178207397461
aF4.5132975578308105
aF0.0
aa(lp1164
F-25.445985794067383
aF0.0
aF0.0
aaF0.093606000000005116
aa(lp1165
(lp1166
F25.422063827514648
aF4.4010581970214844
aF0.0
aa(lp1167
F-25.445985794067383
aF0.0
aF0.0
aaF0.094052000000001731
aa(lp1168
(lp1169
F25.654521942138672
aF4.2904505729675293
aF0.0
aa(lp1170
F-25.445985794067383
aF0.0
aF0.0
aaF0.092684999999999837
aa(lp1171
(lp1172
F25.884614944458008
aF4.1780452728271484
aF0.0
aa(lp1173
F-26.627065658569336
aF0.0
aF0.0
aaF0.092200999999999686
aa(lp1174
(lp1175
F26.113822937011719
aF4.0570340156555176
aF0.0
aa(lp1176
F-29.036603927612305
aF0.0
aF0.0
aaF0.093326000000001505
aa(lp1177
(lp1178
F26.335241317749023
aF3.9248311519622803
aF0.0
aa(lp1179
F-32.644161224365234
aF0.0
aF0.0
aaF0.092862999999990967
aa(lp1180
(lp1181
F26.551675796508789
aF3.7724955081939697
aF0.0
aa(lp1182
F-37.634986877441406
aF0.0
aF0.0
aaF0.095321000000009468
aa(lp1183
(lp1184
F26.759628295898438
aF3.5921206474304199
aF0.0
aa(lp1185
F-44.240589141845703
aF0.0
aF0.0
aaF0.099165999999993579
aa(lp1186
(lp1187
F26.940641403198242
aF3.3896667957305908
aF0.0
aa(lp1188
F-52.160140991210938
aF0.0
aF0.0
aaF0.097855000000006617
aa(lp1189
(lp1190
F27.091133117675781
aF3.1586308479309082
aF0.0
aa(lp1191
F-61.681121826171875
aF0.0
aF0.0
aaF0.099385999999992355
aa(lp1192
(lp1193
F27.202123641967773
aF2.8900766372680664
aF0.0
aa(lp1194
F-73.409027099609375
aF0.0
aF0.0
aaF0.10480399999999827
aa(lp1195
(lp1196
F27.251218795776367
aF2.617354154586792
aF0.0
aa(lp1197
F-86.181282043457031
aF0.0
aF0.0
aaF0.099974999999997413
aa(lp1198
(lp1199
F27.232490539550781
aF2.3295891284942627
aF0.0
aa(lp1200
F-101.26560974121094
aF0.0
aF0.0
aaF0.10412500000000728
aa(lp1201
(lp1202
F27.139373779296875
aF2.0583827495574951
aF0.0
aa(lp1203
F-116.63394165039062
aF0.0
aF0.0
aaF0.10354899999999782
aa(lp1204
(lp1205
F26.977592468261719
aF1.8144198656082153
aF0.0
aa(lp1206
F-130.46542358398438
aF0.0
aF0.0
aaF0.10564899999999648
aa(lp1207
(lp1208
F26.766155242919922
aF1.6135553121566772
aF0.0
aa(lp1209
F-142.47261047363281
aF0.0
aF0.0
aaF0.10519199999999922
aa(lp1210
(lp1211
F26.518880844116211
aF1.4568536281585693
aF0.0
aa(lp1212
F-152.80107116699219
aF0.0
aF0.0
aaF0.10554099999999915
aa(lp1213
(lp1214
F26.246963500976562
aF1.3423058986663818
aF0.0
aa(lp1215
F-161.51156616210938
aF0.0
aF0.0
aaF0.10633400000000075
aa(lp1216
(lp1217
F25.959800720214844
aF1.2656717300415039
aF0.0
aa(lp1218
F-168.60420227050781
aF0.0
aF0.0
aaF0.10707500000000574
aa(lp1219
(lp1220
F25.66514778137207
aF1.22075355052948
aF0.0
aa(lp1221
F-174.06044006347656
aF0.0
aF0.0
aaF0.10735100000000523
aa(lp1222
(lp1223
F25.370199203491211
aF1.1999449729919434
aF0.0
aa(lp1224
F-177.86846923828125
aF0.0
aF0.0
aaF0.10647500000000003
aa(lp1225
(lp1226
F25.073528289794922
aF1.1946631669998169
aF0.0
aa(lp1227
F-180.09162902832031
aF0.0
aF0.0
aaF0.10683500000000061
aa(lp1228
(lp1229
F24.776437759399414
aF1.1967819929122925
aF0.0
aa(lp1230
F-180.72560119628906
aF0.0
aF0.0
aaF0.10696599999999672
aa(lp1231
(lp1232
F24.478452682495117
aF1.2005559206008911
aF0.0
aa(lp1233
F-180.72560119628906
aF0.0
aF0.0
aaF0.10729299999999535
aa(lp1234
(lp1235
F24.181848526000977
aF1.2043123245239258
aF0.0
aa(lp1236
F-180.72560119628906
aF0.0
aF0.0
aaF0.1067959999999996
aa(lp1237
(lp1238
F23.877017974853516
aF1.2081729173660278
aF0.0
aa(lp1239
F-180.72560119628906
aF0.0
aF0.0
aaF0.10975799999999618
aa(lp1240
(lp1241
F23.57994270324707
aF1.2119354009628296
aF0.0
aa(lp1242
F-180.72560119628906
aF0.0
aF0.0
aaF0.10696600000001093
aa(lp1243
(lp1244
F23.281963348388672
aF1.2157092094421387
aF0.0
aa(lp1245
F-180.72560119628906
aF0.0
aF0.0
aaF0.1072910000000004
aa(lp1246
(lp1247
F22.984020233154297
aF1.2153245210647583
aF0.0
aa(lp1248
F-179.12646484375
aF0.0
aF0.0
aaF0.107272999999989
aa(lp1249
(lp1250
F22.683139801025391
aF1.202174186706543
aF0.0
aa(lp1251
F-175.86833190917969
aF0.0
aF0.0
aaF0.10844500000000006
aa(lp1252
(lp1253
F22.391891479492188
aF1.1770027875900269
aF0.0
aa(lp1254
F-174.2525634765625
aF0.0
aF0.0
aaF0.10525400000001321
aa(lp1255
(lp1256
F22.095134735107422
aF1.1470143795013428
aF0.0
aa(lp1257
F-174.20664978027344
aF0.0
aF0.0
aaF0.10738599999998792
aa(lp1258
(lp1259
F21.798154830932617
aF1.1168830394744873
aF0.0
aa(lp1260
F-174.20664978027344
aF0.0
aF0.0
aaF0.10747199999999817
aa(lp1261
(lp1262
F21.496879577636719
aF1.0863158702850342
aF0.0
aa(lp1263
F-174.20664978027344
aF0.0
aF0.0
aaF0.1090260000000111
aa(lp1264
(lp1265
F21.199773788452148
aF1.0561718940734863
aF0.0
aa(lp1266
F-174.20664978027344
aF0.0
aF0.0
aaF0.10751699999999824
aa(lp1267
(lp1268
F20.902715682983398
aF1.0260326862335205
aF0.0
aa(lp1269
F-174.20664978027344
aF0.0
aF0.0
aaF0.10749999999999853
aa(lp1270
(lp1271
F20.603141784667969
aF0.99563831090927124
aF0.0
aa(lp1272
F-174.20664978027344
aF0.0
aF0.0
aaF0.10841000000000316
aa(lp1273
(lp1274
F20.301162719726562
aF0.96499967575073242
aF0.0
aa(lp1275
F-174.20664978027344
aF0.0
aF0.0
aaF0.10928099999999256
aa(lp1276
(lp1277
F20.003305435180664
aF0.93477940559387207
aF0.0
aa(lp1278
F-174.20664978027344
aF0.0
aF0.0
aaF0.10778900000000784
aa(lp1279
(lp1280
F19.703029632568359
aF0.90431380271911621
aF0.0
aa(lp1281
F-174.20664978027344
aF0.0
aF0.0
aaF0.10866400000000136
aa(lp1282
(lp1283
F19.406408309936523
aF0.87421888113021851
aF0.0
aa(lp1284
F-174.20664978027344
aF0.0
aF0.0
aaF0.10734199999999954
aa(lp1285
(lp1286
F19.111223220825195
aF0.84426975250244141
aF0.0
aa(lp1287
F-174.20664978027344
aF0.0
aF0.0
aaF0.1068219999999908
aa(lp1288
(lp1289
F18.814304351806641
aF0.8141445517539978
aF0.0
aa(lp1290
F-174.20664978027344
aF0.0
aF0.0
aaF0.10744999999999687
aa(lp1291
(lp1292
F18.519357681274414
aF0.78421956300735474
aF0.0
aa(lp1293
F-174.20664978027344
aF0.0
aF0.0
aaF0.10673600000000898
aa(lp1294
(lp1295
F18.223892211914062
aF0.75424212217330933
aF0.0
aa(lp1296
F-174.20664978027344
aF0.0
aF0.0
aaF0.10692299999999159
aa(lp1297
(lp1298
F17.9288330078125
aF0.72430562973022461
aF0.0
aa(lp1299
F-174.20664978027344
aF0.0
aF0.0
aaF0.10677700000000494
aa(lp1300
(lp1301
F17.631319046020508
aF0.69412010908126831
aF0.0
aa(lp1302
F-174.20664978027344
aF0.0
aF0.0
aaF0.10766500000000827
aa(lp1303
(lp1304
F17.334238052368164
aF0.66397863626480103
aF0.0
aa(lp1305
F-174.20664978027344
aF0.0
aF0.0
aaF0.10750799999999254
aa(lp1306
(lp1307
F17.044794082641602
aF0.63461190462112427
aF0.0
aa(lp1308
F-174.20664978027344
aF0.0
aF0.0
aaF0.10474500000000513
aa(lp1309
(lp1310
F16.749284744262695
aF0.6046299934387207
aF0.0
aa(lp1311
F-174.20664978027344
aF0.0
aF0.0
aaF0.10693899999999383
aa(lp1312
(lp1313
F16.454540252685547
aF0.5747254490852356
aF0.0
aa(lp1314
F-174.20664978027344
aF0.0
aF0.0
aaF0.10666300000000854
aa.