(lp0
(lp1
(lp2
F5.8800516128540039
aF8.489222526550293
aF0.20000000298023224
aa(lp3
F176.85023498535156
aF0.0
aF0.0
aaF1.0000000000000001e-05
aa(lp4
(lp5
F5.8800516128540039
aF8.489222526550293
aF0.20000000298023224
aa(lp6
F176.85023498535156
aF0.0
aF0.0
aaF0.05738099999999946
aa(lp7
(lp8
F5.8800516128540039
aF8.489222526550293
aF0.20000000298023224
aa(lp9
F176.85023498535156
aF0.0
aF0.0
aaF0.062384000000001549
aa(lp10
(lp11
F5.8800516128540039
aF8.489222526550293
aF0.20000000298023224
aa(lp12
F176.85023498535156
aF0.0
aF0.0
aaF0.062798000000000798
aa(lp13
(lp14
F5.8800516128540039
aF8.489222526550293
aF0.20000000298023224
aa(lp15
F176.85023498535156
aF0.0
aF0.0
aaF0.062195000000002665
aa(lp16
(lp17
F5.8800516128540039
aF8.489222526550293
aF0.20000000298023224
aa(lp18
F176.85023498535156
aF0.0
aF0.0
aaF0.06233599999999484
aa(lp19
(lp20
F5.8800516128540039
aF8.489222526550293
aF0.20000000298023224
aa(lp21
F176.85023498535156
aF0.0
aF0.0
aaF0.062362000000000251
aa(lp22
(lp23
F5.8800516128540039
aF8.489222526550293
aF0.20000000298023224
aa(lp24
F176.85023498535156
aF0.0
aF0.0
aaF0.062286000000000286
aa(lp25
(lp26
F5.8800516128540039
aF8.489222526550293
aF0.20000000298023224
aa(lp27
F176.85023498535156
aF0.0
aF0.0
aaF0.062545000000000073
aa(lp28
(lp29
F5.8800516128540039
aF8.489222526550293
aF0.20000000298023224
aa(lp30
F176.85023498535156
aF0.0
aF0.0
aaF0.062218000000001439
aa(lp31
(lp32
F5.8800516128540039
aF8.489222526550293
aF0.20000000298023224
aa(lp33
F176.85023498535156
aF0.0
aF0.0
aaF0.062679000000002816
aa(lp34
(lp35
F5.8690333366394043
aF8.4898290634155273
aF0.20000000298023224
aa(lp36
F176.85023498535156
aF0.0
aF0.0
aaF0.063027999999995643
aa(lp37
(lp38
F5.8462815284729004
aF8.4910812377929688
aF0.20000000298023224
aa(lp39
F176.85023498535156
aF0.0
aF0.0
aaF0.064382999999999413
aa(lp40
(lp41
F5.8127384185791016
aF8.4929275512695312
aF0.20000000298023224
aa(lp42
F176.85023498535156
aF0.0
aF0.0
aaF0.063386000000001275
aa(lp43
(lp44
F5.7675600051879883
aF8.4954137802124023
aF0.20000000298023224
aa(lp45
F176.85023498535156
aF0.0
aF0.0
aaF0.063943000000001859
aa(lp46
(lp47
F5.7109622955322266
aF8.4985275268554688
aF0.20000000298023224
aa(lp48
F176.85023498535156
aF0.0
aF0.0
aaF0.064016999999999769
aa(lp49
(lp50
F5.6434826850891113
aF8.5022411346435547
aF0.20000000298023224
aa(lp51
F176.85023498535156
aF0.0
aF0.0
aaF0.063625999999999294
aa(lp52
(lp53
F5.5647082328796387
aF8.5065765380859375
aF0.20000000298023224
aa(lp54
F176.85023498535156
aF0.0
aF0.0
aaF0.063673000000004976
aa(lp55
(lp56
F5.4766068458557129
aF8.5114240646362305
aF0.20000000298023224
aa(lp57
F176.85023498535156
aF0.0
aF0.0
aaF0.063529000000002611
aa(lp58
(lp59
F5.3874874114990234
aF8.5163288116455078
aF0.20000000298023224
aa(lp60
F176.85023498535156
aF0.0
aF0.0
aaF0.06426299999999685
aa(lp61
(lp62
F5.2986507415771484
aF8.5212173461914062
aF0.20000000298023224
aa(lp63
F176.85023498535156
aF0.0
aF0.0
aaF0.06405900000000031
aa(lp64
(lp65
F5.210057258605957
aF8.526092529296875
aF0.20000000298023224
aa(lp66
F176.85023498535156
aF0.0
aF0.0
aaF0.063884000000001606
aa(lp67
(lp68
F5.1211113929748535
aF8.5309867858886719
aF0.20000000298023224
aa(lp69
F176.85023498535156
aF0.0
aF0.0
aaF0.064137999999999806
aa(lp70
(lp71
F5.0324854850769043
aF8.5358638763427734
aF0.20000000298023224
aa(lp72
F176.85023498535156
aF0.0
aF0.0
aaF0.06390700000000038
aa(lp73
(lp74
F4.9424800872802734
aF8.5408163070678711
aF0.0
aa(lp75
F176.85023498535156
aF0.0
aF0.0
aaF0.064901999999996463
aa(lp76
(lp77
F4.853675365447998
aF8.5457038879394531
aF0.0
aa(lp78
F176.85023498535156
aF0.0
aF0.0
aaF0.064036000000001536
aa(lp79
(lp80
F4.7654938697814941
aF8.5505561828613281
aF0.0
aa(lp81
F176.85023498535156
aF0.0
aF0.0
aaF0.063586999999998284
aa(lp82
(lp83
F4.6769084930419922
aF8.5554313659667969
aF0.0
aa(lp84
F176.85023498535156
aF0.0
aF0.0
aaF0.063878000000002544
aa(lp85
(lp86
F4.5867419242858887
aF8.5603923797607422
aF0.0
aa(lp87
F176.85023498535156
aF0.0
aF0.0
aaF0.065018000000002019
aa(lp88
(lp89
F4.4977278709411621
aF8.5652914047241211
aF0.0
aa(lp90
F176.85023498535156
aF0.0
aF0.0
aaF0.064186999999996885
aa(lp91
(lp92
F4.4091982841491699
aF8.5701627731323242
aF0.0
aa(lp93
F176.85023498535156
aF0.0
aF0.0
aaF0.063837999999996953
aa(lp94
(lp95
F4.3203229904174805
aF8.5750532150268555
aF0.0
aa(lp96
F176.85023498535156
aF0.0
aF0.0
aaF0.064087000000000671
aa(lp97
(lp98
F4.232151985168457
aF8.5799055099487305
aF0.0
aa(lp99
F176.85023498535156
aF0.0
aF0.0
aaF0.063579000000004271
aa(lp100
(lp101
F4.1433181762695312
aF8.5847940444946289
aF0.0
aa(lp102
F176.85023498535156
aF0.0
aF0.0
aaF0.064056999999998254
aa(lp103
(lp104
F4.0549049377441406
aF8.5896596908569336
aF0.0
aa(lp105
F176.85023498535156
aF0.0
aF0.0
aaF0.063754000000002975
aa(lp106
(lp107
F3.9666454792022705
aF8.5945158004760742
aF0.0
aa(lp108
F176.85023498535156
aF0.0
aF0.0
aaF0.063642999999999006
aa(lp109
(lp110
F3.8781862258911133
aF8.5993843078613281
aF0.0
aa(lp111
F176.85023498535156
aF0.0
aF0.0
aaF0.063786999999997818
aa(lp112
(lp113
F3.7900667190551758
aF8.6042327880859375
aF0.0
aa(lp114
F176.85023498535156
aF0.0
aF0.0
aaF0.063541999999998211
aa(lp115
(lp116
F3.712742805480957
aF8.6084880828857422
aF0.0
aa(lp117
F176.85023498535156
aF0.0
aF0.0
aaF0.06393200000000121
aa(lp118
(lp119
F3.6471202373504639
aF8.6120996475219727
aF0.0
aa(lp120
F176.85023498535156
aF0.0
aF0.0
aaF0.063506000000003837
aa(lp121
(lp122
F3.5929486751556396
aF8.6150808334350586
aF0.0
aa(lp123
F176.85023498535156
aF0.0
aF0.0
aaF0.063116999999998313
aa(lp124
(lp125
F3.5497457981109619
aF8.617457389831543
aF0.0
aa(lp126
F176.85023498535156
aF0.0
aF0.0
aaF0.063276000000001886
aa(lp127
(lp128
F3.5176875591278076
aF8.6192216873168945
aF0.0
aa(lp129
F176.85023498535156
aF0.0
aF0.0
aaF0.063155999999999324
aa(lp130
(lp131
F3.4966421127319336
aF8.6203804016113281
aF0.0
aa(lp132
F176.85023498535156
aF0.0
aF0.0
aaF0.063477999999996371
aa(lp133
(lp134
F3.4867928028106689
aF8.6209220886230469
aF0.0
aa(lp135
F176.85023498535156
aF0.0
aF0.0
aaF0.06435000000000457
aa(lp136
(lp137
F3.4867928028106689
aF8.6209220886230469
aF0.0
aa(lp138
F176.85023498535156
aF0.0
aF0.0
aaF0.063622999999999763
aa(lp139
(lp140
F3.4867928028106689
aF8.6209220886230469
aF0.0
aa(lp141
F176.85023498535156
aF0.0
aF0.0
aaF0.062885999999998887
aa(lp142
(lp143
F3.4867928028106689
aF8.6209220886230469
aF0.0
aa(lp144
F176.85023498535156
aF0.0
aF0.0
aaF0.062742000000000075
aa(lp145
(lp146
F3.4867928028106689
aF8.6209220886230469
aF0.0
aa(lp147
F176.85023498535156
aF0.0
aF0.0
aaF0.063071999999998241
aa(lp148
(lp149
F3.4758510589599609
aF8.6215238571166992
aF0.0
aa(lp150
F176.85023498535156
aF0.0
aF0.0
aaF0.062809000000001447
aa(lp151
(lp152
F3.4537544250488281
aF8.6227397918701172
aF0.0
aa(lp153
F176.85023498535156
aF0.0
aF0.0
aaF0.063215999999997052
aa(lp154
(lp155
F3.4198358058929443
aF8.6246070861816406
aF0.0
aa(lp156
F176.85023498535156
aF0.0
aF0.0
aaF0.064266000000003487
aa(lp157
(lp158
F3.3748846054077148
aF8.627079963684082
aF0.0
aa(lp159
F176.85023498535156
aF0.0
aF0.0
aaF0.063786999999997818
aa(lp160
(lp161
F3.3186590671539307
aF8.6301746368408203
aF0.0
aa(lp162
F176.85023498535156
aF0.0
aF0.0
aaF0.063777000000001749
aa(lp163
(lp164
F3.2513198852539062
aF8.6338796615600586
aF0.0
aa(lp165
F176.85023498535156
aF0.0
aF0.0
aaF0.06364099999999695
aa(lp166
(lp167
F3.1719319820404053
aF8.6382484436035156
aF0.0
aa(lp168
F176.85023498535156
aF0.0
aF0.0
aaF0.064218000000003883
aa(lp169
(lp170
F3.0831940174102783
aF8.643132209777832
aF0.0
aa(lp171
F176.85023498535156
aF0.0
aF0.0
aaF0.063987999999994827
aa(lp172
(lp173
F2.9936726093292236
aF8.6480579376220703
aF0.0
aa(lp174
F176.85023498535156
aF0.0
aF0.0
aaF0.064553000000003635
aa(lp175
(lp176
F2.9043881893157959
aF8.6529712677001953
aF0.0
aa(lp177
F176.85023498535156
aF0.0
aF0.0
aaF0.064382000000001938
aa(lp178
(lp179
F2.814582347869873
aF8.6579132080078125
aF0.0
aa(lp180
F176.85023498535156
aF0.0
aF0.0
aaF0.064757999999997651
aa(lp181
(lp182
F2.724567174911499
aF8.6628665924072266
aF0.0
aa(lp183
F176.85023498535156
aF0.0
aF0.0
aaF0.064909000000000106
aa(lp184
(lp185
F2.6349179744720459
aF8.6677999496459961
aF0.0
aa(lp186
F176.85023498535156
aF0.0
aF0.0
aaF0.064644999999998731
aa(lp187
(lp188
F2.5459942817687988
aF8.6726932525634766
aF0.0
aa(lp189
F176.85023498535156
aF0.0
aF0.0
aaF0.06412199999999757
aa(lp190
(lp191
F2.4572410583496094
aF8.677577018737793
aF0.0
aa(lp192
F176.85023498535156
aF0.0
aF0.0
aaF0.063999000000002582
aa(lp193
(lp194
F2.3801403045654297
aF8.6818199157714844
aF0.0
aa(lp195
F176.85023498535156
aF0.0
aF0.0
aaF0.06371599999999944
aa(lp196
(lp197
F2.3143620491027832
aF8.6854400634765625
aF0.0
aa(lp198
F176.85023498535156
aF0.0
aF0.0
aaF0.063642999999999006
aa(lp199
(lp200
F2.2596366405487061
aF8.6884517669677734
aF0.0
aa(lp201
F176.85023498535156
aF0.0
aF0.0
aaF0.063909999999999911
aa(lp202
(lp203
F2.2164373397827148
aF8.6908283233642578
aF0.0
aa(lp204
F176.85023498535156
aF0.0
aF0.0
aaF0.063517000000004487
aa(lp205
(lp206
F2.1845138072967529
aF8.6925849914550781
aF0.0
aa(lp207
F176.85023498535156
aF0.0
aF0.0
aaF0.063254999999998063
aa(lp208
(lp209
F2.1636390686035156
aF8.6937341690063477
aF0.0
aa(lp210
F176.85023498535156
aF0.0
aF0.0
aaF0.063575000000000159
aa(lp211
(lp212
F2.1539711952209473
aF8.6942663192749023
aF0.0
aa(lp213
F176.85023498535156
aF0.0
aF0.0
aaF0.063429999999996767
aa(lp214
(lp215
F2.1539711952209473
aF8.6942663192749023
aF0.0
aa(lp216
F176.85023498535156
aF0.0
aF0.0
aaF0.063401000000006036
aa(lp217
(lp218
F2.1539711952209473
aF8.6942663192749023
aF0.0
aa(lp219
F176.85023498535156
aF0.0
aF0.0
aaF0.064103999999993277
aa(lp220
(lp221
F2.1539711952209473
aF8.6942663192749023
aF0.0
aa(lp222
F176.85023498535156
aF0.0
aF0.0
aaF0.063253000000003112
aa(lp223
(lp224
F2.1539711952209473
aF8.6942663192749023
aF0.0
aa(lp225
F176.85023498535156
aF0.0
aF0.0
aaF0.063104000000002713
aa(lp226
(lp227
F2.1539711952209473
aF8.6942663192749023
aF0.0
aa(lp228
F176.85023498535156
aF0.0
aF0.0
aaF0.064849999999999852
aa(lp229
(lp230
F2.1425511837005615
aF8.6948947906494141
aF0.0
aa(lp231
F176.85023498535156
aF0.0
aF0.0
aaF0.064166999999997643
aa(lp232
(lp233
F2.1196877956390381
aF8.6961526870727539
aF0.0
aa(lp234
F176.85023498535156
aF0.0
aF0.0
aaF0.06421100000000024
aa(lp235
(lp236
F2.0853452682495117
aF8.6980428695678711
aF0.0
aa(lp237
F176.85023498535156
aF0.0
aF0.0
aaF0.064272000000002549
aa(lp238
(lp239
F2.040043830871582
aF8.7003698348999023
aF0.0
aa(lp240
F177.26734924316406
aF0.0
aF0.0
aaF0.063701999999999259
aa(lp241
(lp242
F1.9831117391586304
aF8.7025632858276367
aF0.0
aa(lp243
F178.32046508789062
aF0.0
aF0.0
aaF0.064022000000001356
aa(lp244
(lp245
F1.915273904800415
aF8.703434944152832
aF0.0
aa(lp246
F180.20698547363281
aF0.0
aF0.0
aaF0.063608999999999583
aa(lp247
(lp248
F1.837713360786438
aF8.7012052536010742
aF0.0
aa(lp249
F183.08694458007812
aF0.0
aF0.0
aaF0.062560999999995204
aa(lp250
(lp251
F1.7511674165725708
aF8.6934623718261719
aF0.0
aa(lp252
F187.13766479492188
aF0.0
aF0.0
aaF0.06257500000000249
aa(lp253
(lp254
F1.6662082672119141
aF8.6791505813598633
aF0.0
aa(lp255
F191.98640441894531
aF0.0
aF0.0
aaF0.062050999999996748
aa(lp256
(lp257
F1.5826103687286377
aF8.6569814682006836
aF0.0
aa(lp258
F197.71839904785156
aF0.0
aF0.0
aaF0.062297000000000935
aa(lp259
(lp260
F1.5019639730453491
aF8.6259775161743164
aF0.0
aa(lp261
F204.33895874023438
aF0.0
aF0.0
aaF0.062243000000002269
aa(lp262
(lp263
F1.4260658025741577
aF8.5855827331542969
aF0.0
aa(lp264
F211.70660400390625
aF0.0
aF0.0
aaF0.061946999999996422
aa(lp265
(lp266
F1.3551143407821655
aF8.5350894927978516
aF0.0
aa(lp267
F219.16915893554688
aF0.0
aF0.0
aaF0.062744999999999607
aa(lp268
(lp269
F1.291934609413147
aF8.4764566421508789
aF0.0
aa(lp270
F226.55534362792969
aF0.0
aF0.0
aaF0.062103000000000463
aa(lp271
(lp272
F1.2362090349197388
aF8.4093523025512695
aF0.0
aa(lp273
F234.030029296875
aF0.0
aF0.0
aaF0.062847000000004982
aa(lp274
(lp275
F1.1889004707336426
aF8.3341169357299805
aF0.0
aa(lp276
F241.6461181640625
aF0.0
aF0.0
aaF0.064035999999994431
aa(lp277
(lp278
F1.1521627902984619
aF8.2537555694580078
aF0.0
aa(lp279
F249.21820068359375
aF0.0
aF0.0
aaF0.063666000000004885
aa(lp280
(lp281
F1.1267578601837158
aF8.1710453033447266
aF0.0
aa(lp282
F256.63272094726562
aF0.0
aF0.0
aaF0.062340999999996427
aa(lp283
(lp284
F1.1115281581878662
aF8.0857105255126953
aF0.0
aa(lp285
F263.12911987304688
aF0.0
aF0.0
aaF0.062445000000003859
aa(lp286
(lp287
F1.1053928136825562
aF7.9998083114624023
aF0.0
aa(lp288
F268.70034790039062
aF0.0
aF0.0
aaF0.06203199999999498
aa(lp289
(lp290
F1.107025146484375
aF7.9129457473754883
aF0.0
aa(lp291
F273.45269775390625
aF0.0
aF0.0
aaF0.062570000000000903
aa(lp292
(lp293
F1.1150079965591431
aF7.8281393051147461
aF0.0
aa(lp294
F277.30215454101562
aF0.0
aF0.0
aaF0.061342000000003338
aa(lp295
(lp296
F1.1282864809036255
aF7.7428269386291504
aF0.0
aa(lp297
F280.39163208007812
aF0.0
aF0.0
aaF0.062171999999996785
aa(lp298
(lp299
F1.1432029008865356
aF7.6688137054443359
aF0.0
aa(lp300
F282.39755249023438
aF0.0
aF0.0
aaF0.06206900000000104
aa(lp301
(lp302
F1.15770423412323
aF7.6058187484741211
aF0.0
aa(lp303
F283.52947998046875
aF0.0
aF0.0
aaF0.061885000000003743
aa(lp304
(lp305
F1.1705338954925537
aF7.5534281730651855
aF0.0
aa(lp306
F283.99075317382812
aF0.0
aF0.0
aaF0.061789999999994905
aa(lp307
(lp308
F1.1810239553451538
aF7.5113258361816406
aF0.0
aa(lp309
F283.99075317382812
aF0.0
aF0.0
aaF0.061897000000001867
aa(lp310
(lp311
F1.1889193058013916
aF7.479637622833252
aF0.0
aa(lp312
F283.99075317382812
aF0.0
aF0.0
aaF0.061644999999998618
aa(lp313
(lp314
F1.1942951679229736
aF7.458061695098877
aF0.0
aa(lp315
F283.99075317382812
aF0.0
aF0.0
aaF0.062370000000001369
aa(lp316
(lp317
F1.2022255659103394
aF7.4262323379516602
aF0.0
aa(lp318
F283.99075317382812
aF0.0
aF0.0
aaF0.06203000000000003
aa(lp319
(lp320
F1.2127032279968262
aF7.3841800689697266
aF0.0
aa(lp321
F283.99075317382812
aF0.0
aF0.0
aaF0.061855000000001326
aa(lp322
(lp323
F1.2257444858551025
aF7.3318386077880859
aF0.0
aa(lp324
F283.99075317382812
aF0.0
aF0.0
aaF0.061832000000002552
aa(lp325
(lp326
F1.2417590618133545
aF7.2675633430480957
aF0.0
aa(lp327
F283.99075317382812
aF0.0
aF0.0
aaF0.063207999999995934
aa(lp328
(lp329
F1.2602947950363159
aF7.1931695938110352
aF0.0
aa(lp330
F283.99075317382812
aF0.0
aF0.0
aaF0.06272899999999737
aa(lp331
(lp332
F1.2812179327011108
aF7.1091938018798828
aF0.0
aa(lp333
F283.99075317382812
aF0.0
aF0.0
aaF0.062311000000001115
aa(lp334
(lp335
F1.3020775318145752
aF7.0254726409912109
aF0.0
aa(lp336
F283.99075317382812
aF0.0
aF0.0
aaF0.062122000000002231
aa(lp337
(lp338
F1.3235678672790527
aF6.9416508674621582
aF0.0
aa(lp339
F284.76898193359375
aF0.0
aF0.0
aaF0.062303999999997473
aa(lp340
(lp341
F1.3465180397033691
aF6.8591055870056152
aF0.0
aa(lp342
F286.30609130859375
aF0.0
aF0.0
aaF0.061689000000001215
aa(lp343
(lp344
F1.3722665309906006
aF6.7772617340087891
aF0.0
aa(lp345
F288.62158203125
aF0.0
aF0.0
aaF0.061779000000001361
aa(lp346
(lp347
F1.4024157524108887
aF6.6953496932983398
aF0.0
aa(lp348
F291.7923583984375
aF0.0
aF0.0
aaF0.062852999999996939
aa(lp349
(lp350
F1.4375141859054565
aF6.6157188415527344
aF0.0
aa(lp351
F295.78009033203125
aF0.0
aF0.0
aaF0.062668999999999642
aa(lp352
(lp353
F1.4790366888046265
aF6.5383548736572266
aF0.0
aa(lp354
F300.66629028320312
aF0.0
aF0.0
aaF0.063237000000000876
aa(lp355
(lp356
F1.5273900032043457
aF6.4654197692871094
aF0.0
aa(lp357
F306.41949462890625
aF0.0
aF0.0
aaF0.063031999999999755
aa(lp358
(lp359
F1.5838227272033691
aF6.3976478576660156
aF0.0
aa(lp360
F313.14810180664062
aF0.0
aF0.0
aaF0.063534000000004198
aa(lp361
(lp362
F1.6487387418746948
aF6.3370156288146973
aF0.0
aa(lp363
F320.76025390625
aF0.0
aF0.0
aaF0.064002999999999588
aa(lp364
(lp365
F1.721218466758728
aF6.2854528427124023
aF0.0
aa(lp366
F328.38290405273438
aF0.0
aF0.0
aaF0.064090999999997678
aa(lp367
(lp368
F1.8002426624298096
aF6.2438063621520996
aF0.0
aa(lp369
F336.03787231445312
aF0.0
aF0.0
aaF0.06436300000000017
aa(lp370
(lp371
F1.8844554424285889
aF6.2129569053649902
aF0.0
aa(lp372
F343.72366333007812
aF0.0
aF0.0
aaF0.064621999999999957
aa(lp373
(lp374
F1.9732654094696045
aF6.1934628486633301
aF0.0
aa(lp375
F351.51577758789062
aF0.0
aF0.0
aaF0.06551600000000235
aa(lp376
(lp377
F2.0628998279571533
aF6.1862025260925293
aF0.0
aa(lp378
F359.22238159179688
aF0.0
aF0.0
aaF0.064796999999998661
aa(lp379
(lp380
F2.1528885364532471
aF6.1910505294799805
aF0.0
aa(lp381
F366.94540405273438
aF0.0
aF0.0
aaF0.064934999999998411
aa(lp382
(lp383
F2.2424089908599854
aF6.2082104682922363
aF0.0
aa(lp384
F374.75689697265625
aF0.0
aF0.0
aaF0.065679000000002929
aa(lp385
(lp386
F2.329355001449585
aF6.2376232147216797
aF0.0
aa(lp387
F382.62301635742188
aF0.0
aF0.0
aaF0.066138000000002251
aa(lp388
(lp389
F2.4015796184539795
aF6.2722210884094238
aF0.0
aa(lp390
F388.5692138671875
aF0.0
aF0.0
aaF0.066541999999998325
aa(lp391
(lp392
F2.4599027633666992
aF6.3068728446960449
aF0.0
aa(lp393
F392.8621826171875
aF0.0
aF0.0
aaF0.066584999999996342
aa(lp394
(lp395
F2.5057902336120605
aF6.3382058143615723
aF0.0
aa(lp396
F395.79052734375
aF0.0
aF0.0
aaF0.066631000000000995
aa(lp397
(lp398
F2.5405566692352295
aF6.3641290664672852
aF0.0
aa(lp399
F397.62921142578125
aF0.0
aF0.0
aaF0.066914000000004137
aa(lp400
(lp401
F2.5649411678314209
aF6.3832697868347168
aF0.0
aa(lp402
F398.63070678710938
aF0.0
aF0.0
aaF0.067160999999998694
aa(lp403
(lp404
F2.598808765411377
aF6.4108119010925293
aF0.0
aa(lp405
F399.60769653320312
aF0.0
aF0.0
aaF0.067309999999999093
aa(lp406
(lp407
F2.6412131786346436
aF6.4470372200012207
aF0.0
aa(lp408
F401.40576171875
aF0.0
aF0.0
aaF0.066853999999999303
aa(lp409
(lp410
F2.691023588180542
aF6.4932284355163574
aF0.0
aa(lp411
F404.27606201171875
aF0.0
aF0.0
aaF0.066647000000003231
aa(lp412
(lp413
F2.7459125518798828
aF6.5507893562316895
aF0.0
aa(lp414
F408.4464111328125
aF0.0
aF0.0
aaF0.06612599999999702
aa(lp415
(lp416
F2.8040950298309326
aF6.6236414909362793
aF0.0
aa(lp417
F414.32901000976562
aF0.0
aF0.0
aaF0.067157999999999163
aa(lp418
(lp419
F2.854935884475708
aF6.7046551704406738
aF0.0
aa(lp420
F421.4495849609375
aF0.0
aF0.0
aaF0.068908999999997889
aa(lp421
(lp422
F2.8937451839447021
aF6.7896275520324707
aF0.0
aa(lp423
F429.45553588867188
aF0.0
aF0.0
aaF0.067314000000003205
aa(lp424
(lp425
F2.9204423427581787
aF6.879631519317627
aF0.0
aa(lp426
F437.5013427734375
aF0.0
aF0.0
aaF0.067648999999995851
aa(lp427
(lp428
F2.9343287944793701
aF6.9731268882751465
aF0.0
aa(lp429
F445.60223388671875
aF0.0
aF0.0
aaF0.06811200000000639
aa(lp430
(lp431
F2.9349253177642822
aF7.0672831535339355
aF0.0
aa(lp432
F453.67193603515625
aF0.0
aF0.0
aaF0.067849999999999966
aa(lp433
(lp434
F2.9221704006195068
aF7.1612057685852051
aF0.0
aa(lp435
F461.79541015625
aF0.0
aF0.0
aaF0.068301999999995644
aa(lp436
(lp437
F2.9017977714538574
aF7.2385087013244629
aF0.0
aa(lp438
F467.73297119140625
aF0.0
aF0.0
aaF0.0664030000000011
aa(lp439
(lp440
F2.8791067600250244
aF7.3013477325439453
aF0.0
aa(lp441
F471.975830078125
aF0.0
aF0.0
aaF0.065324999999994304
aa(lp442
(lp443
F2.8572211265563965
aF7.3518328666687012
aF0.0
aa(lp444
F474.898193359375
aF0.0
aF0.0
aaF0.065413000000006605
aa(lp445
(lp446
F2.838496208190918
aF7.390526294708252
aF0.0
aa(lp447
F476.74978637695312
aF0.0
aF0.0
aaF0.06508599999999376
aa(lp448
(lp449
F2.8242030143737793
aF7.4182548522949219
aF0.0
aa(lp450
F477.78826904296875
aF0.0
aF0.0
aaF0.065004000000001838
aa(lp451
(lp452
F2.8150634765625
aF7.4354305267333984
aF0.0
aa(lp453
F478.24917602539062
aF0.0
aF0.0
aaF0.064982000000000539
aa(lp454
(lp455
F2.8113908767700195
aF7.4422502517700195
aF0.0
aa(lp456
F478.359619140625
aF0.0
aF0.0
aaF0.064672000000001617
aa(lp457
(lp458
F2.8113908767700195
aF7.4422502517700195
aF0.0
aa(lp459
F478.359619140625
aF0.0
aF0.0
aaF0.064728000000002339
aa(lp460
(lp461
F2.8113908767700195
aF7.4422502517700195
aF0.0
aa(lp462
F478.359619140625
aF0.0
aF0.0
aaF0.064730999999994765
aa(lp463
(lp464
F2.8058896064758301
aF7.4524416923522949
aF0.0
aa(lp465
F478.359619140625
aF0.0
aF0.0
aaF0.064571000000000822
aa(lp466
(lp467
F2.7944533824920654
aF7.4735274314880371
aF0.0
aa(lp468
F478.58847045898438
aF0.0
aF0.0
aaF0.066090000000002647
aa(lp469
(lp470
F2.7772002220153809
aF7.5047454833984375
aF0.0
aa(lp471
F479.2677001953125
aF0.0
aF0.0
aaF0.065470000000004802
aa(lp472
(lp473
F2.7537081241607666
aF7.5455336570739746
aF0.0
aa(lp474
F480.61227416992188
aF0.0
aF0.0
aaF0.064914000000001693
aa(lp475
(lp476
F2.7221078872680664
aF7.5965685844421387
aF0.0
aa(lp477
F482.91818237304688
aF0.0
aF0.0
aaF0.066065999999992187
aa(lp478
(lp479
F2.6816682815551758
aF7.6551046371459961
aF0.0
aa(lp480
F486.3590087890625
aF0.0
aF0.0
aaF0.065283000000007974
aa(lp481
(lp482
F2.6304905414581299
aF7.7188735008239746
aF0.0
aa(lp483
F491.138671875
aF0.0
aF0.0
aaF0.064450999999991154
aa(lp484
(lp485
F2.5675711631774902
aF7.7834658622741699
aF0.0
aa(lp486
F497.35781860351562
aF0.0
aF0.0
aaF0.06495600000000934
aa(lp487
(lp488
F2.4968907833099365
aF7.8407106399536133
aF0.0
aa(lp489
F504.63372802734375
aF0.0
aF0.0
aaF0.0655309999999929
aa(lp490
(lp491
F2.4204931259155273
aF7.8875746726989746
aF0.0
aa(lp492
F512.31439208984375
aF0.0
aF0.0
aaF0.064578999999994835
aa(lp493
(lp494
F2.338676929473877
aF7.9237494468688965
aF0.0
aa(lp495
F519.9805908203125
aF0.0
aF0.0
aaF0.064457000000004427
aa(lp496
(lp497
F2.2538650035858154
aF7.9484448432922363
aF0.0
aa(lp498
F527.5504150390625
aF0.0
aF0.0
aaF0.063647000000003118
aa(lp499
(lp500
F2.166356086730957
aF7.962522029876709
aF0.0
aa(lp501
F534.1722412109375
aF0.0
aF0.0
aaF0.063851999999997133
aa(lp502
(lp503
F2.089165210723877
aF7.9670367240905762
aF0.0
aa(lp504
F539.133544921875
aF0.0
aF0.0
aaF0.063841000000003589
aa(lp505
(lp506
F2.0232386589050293
aF7.9659848213195801
aF0.0
aa(lp507
F542.69439697265625
aF0.0
aF0.0
aaF0.063748000000003913
aa(lp508
(lp509
F1.9700671434402466
aF7.9623799324035645
aF0.0
aa(lp510
F545.06329345703125
aF0.0
aF0.0
aaF0.061764999999994075
aa(lp511
(lp512
F1.9274688959121704
aF7.9580421447753906
aF0.0
aa(lp513
F546.5655517578125
aF0.0
aF0.0
aaF0.061995000000010236
aa(lp514
(lp515
F1.8956253528594971
aF7.9541425704956055
aF0.0
aa(lp516
F547.39715576171875
aF0.0
aF0.0
aaF0.06181599999999321
aa(lp517
(lp518
F1.8744198083877563
aF7.9513216018676758
aF0.0
aa(lp519
F547.7596435546875
aF0.0
aF0.0
aaF0.061393000000009579
aa(lp520
(lp521
F1.8636018037796021
aF7.9498386383056641
aF0.0
aa(lp522
F547.84814453125
aF0.0
aF0.0
aaF0.060977999999991539
aa(lp523
(lp524
F1.8629789352416992
aF7.9497528076171875
aF0.0
aa(lp525
F547.84814453125
aF0.0
aF0.0
aaF0.06073700000000315
aa(lp526
(lp527
F1.8629789352416992
aF7.9497528076171875
aF0.0
aa(lp528
F547.84814453125
aF0.0
aF0.0
aaF0.061868000000004031
aa(lp529
(lp530
F1.8524616956710815
aF7.9483122825622559
aF0.0
aa(lp531
F547.75341796875
aF0.0
aF0.0
aaF0.061818999999999846
aa(lp532
(lp533
F1.8315918445587158
aF7.9455404281616211
aF0.0
aa(lp534
F547.37786865234375
aF0.0
aF0.0
aaF0.061472999999992339
aa(lp535
(lp536
F1.8007417917251587
aF7.9417729377746582
aF0.0
aa(lp537
F546.54693603515625
aF0.0
aF0.0
aaF0.060783000000000698
aa(lp538
(lp539
F1.7590372562408447
aF7.9375400543212891
aF0.0
aa(lp540
F545.043701171875
aF0.0
aF0.0
aaF0.061462000000005901
aa(lp541
(lp542
F1.7061545848846436
aF7.9339861869812012
aF0.0
aa(lp543
F542.6453857421875
aF0.0
aF0.0
aaF0.062039999999996098
aa(lp544
(lp545
F1.6430402994155884
aF7.9323215484619141
aF0.0
aa(lp546
F540.3768310546875
aF0.0
aF0.0
aaF0.06157500000000482
aa(lp547
(lp548
F1.5695739984512329
aF7.9331011772155762
aF0.0
aa(lp549
F538.40704345703125
aF0.0
aF0.0
aaF0.061430000000001428
aa(lp550
(lp551
F1.4839961528778076
aF7.9366116523742676
aF0.0
aa(lp552
F536.894775390625
aF0.0
aF0.0
aaF0.062530999999992787
aa(lp553
(lp554
F1.3957234621047974
aF7.9419765472412109
aF0.0
aa(lp555
F536.1497802734375
aF0.0
aF0.0
aaF0.063674000000006004
aa(lp556
(lp557
F1.307778000831604
aF7.9478950500488281
aF0.0
aa(lp558
F536.1497802734375
aF0.0
aF0.0
aaF0.06346399999999619
aa(lp559
(lp560
F1.219332218170166
aF7.9538474082946777
aF0.0
aa(lp561
F536.1497802734375
aF0.0
aF0.0
aaF0.063824999999994247
aa(lp562
(lp563
F1.1287676095962524
aF7.9599428176879883
aF0.0
aa(lp564
F536.1497802734375
aF0.0
aF0.0
aaF0.065353999999999246
aa(lp565
(lp566
F1.0400738716125488
aF7.965911865234375
aF0.0
aa(lp567
F536.1497802734375
aF0.0
aF0.0
aaF0.064004000000011274
aa(lp568
(lp569
F0.95196068286895752
aF7.9718418121337891
aF0.0
aa(lp570
F536.1497802734375
aF0.0
aF0.0
aaF0.063584999999989122
aa(lp571
(lp572
F0.86417454481124878
aF7.9777498245239258
aF0.0
aa(lp573
F536.1497802734375
aF0.0
aF0.0
aaF0.06334900000000232
aa(lp574
(lp575
F0.77588814496994019
aF7.9836916923522949
aF0.0
aa(lp576
F536.1497802734375
aF0.0
aF0.0
aaF0.063710000000000377
aa(lp577
(lp578
F0.68745321035385132
aF7.9902772903442383
aF0.0
aa(lp579
F535.3323974609375
aF0.0
aF0.0
aaF0.063850000000002183
aa(lp580
(lp581
F0.59790331125259399
aF7.9989080429077148
aF0.0
aa(lp582
F533.6575927734375
aF0.0
aF0.0
aaF0.064777000000006524
aa(lp583
(lp584
F0.50956088304519653
aF8.0106821060180664
aF0.0
aa(lp585
F531.15997314453125
aF0.0
aF0.0
aaF0.06417399999999418
aa(lp586
(lp587
F0.42189115285873413
aF8.0256175994873047
aF0.0
aa(lp588
F529.5025634765625
aF0.0
aF0.0
aaF0.064034000000006586
aa(lp589
(lp590
F0.33490368723869324
aF8.0423898696899414
aF0.0
aa(lp591
F528.67156982421875
aF0.0
aF0.0
aaF0.063784999999995762
aa(lp592
(lp593
F0.24884492158889771
aF8.0596475601196289
aF0.0
aa(lp594
F528.64892578125
aF0.0
aF0.0
aaF0.063195999999990704
aa(lp595
(lp596
F0.16314360499382019
aF8.0768518447875977
aF0.0
aa(lp597
F528.64892578125
aF0.0
aF0.0
aaF0.062936000000007652
aa(lp598
(lp599
F0.07694389671087265
aF8.0941562652587891
aF0.0
aa(lp600
F528.64892578125
aF0.0
aF0.0
aaF0.063301999999993086
aa(lp601
(lp602
F-0.0087029486894607544
aF8.1113500595092773
aF0.0
aa(lp603
F528.64892578125
aF0.0
aF0.0
aaF0.062896000000009167
aa(lp604
(lp605
F-0.094766482710838318
aF8.128626823425293
aF0.0
aa(lp606
F528.64892578125
aF0.0
aF0.0
aaF0.063201999999989766
aa(lp607
(lp608
F-0.18115031719207764
aF8.1453380584716797
aF0.0
aa(lp609
F529.45355224609375
aF0.0
aF0.0
aaF0.063350000000014006
aa(lp610
(lp611
F-0.26871290802955627
aF8.1603498458862305
aF0.0
aa(lp612
F531.09039306640625
aF0.0
aF0.0
aaF0.063966999999991003
aa(lp613
(lp614
F-0.35656404495239258
aF8.1721935272216797
aF0.0
aa(lp615
F533.55303955078125
aF0.0
aF0.0
aaF0.063829999999995835
aa(lp616
(lp617
F-0.4448857307434082
aF8.1808996200561523
aF0.0
aa(lp618
F535.18731689453125
aF0.0
aF0.0
aaF0.063902000000013004
aa(lp619
(lp620
F-0.53274255990982056
aF8.1876707077026367
aF0.0
aa(lp621
F535.99884033203125
aF0.0
aF0.0
aaF0.063444999999987317
aa(lp622
(lp623
F-0.62127482891082764
aF8.1938629150390625
aF0.0
aa(lp624
F535.99884033203125
aF0.0
aF0.0
aaF0.063899000000006367
aa(lp625
(lp626
F-0.70959514379501343
aF8.2000408172607422
aF0.0
aa(lp627
F535.99884033203125
aF0.0
aF0.0
aaF0.063745999999994751
aa(lp628
(lp629
F-0.79748320579528809
aF8.2061882019042969
aF0.0
aa(lp630
F535.99884033203125
aF0.0
aF0.0
aaF0.063434000000000879
aa(lp631
(lp632
F-0.88597947359085083
aF8.2123785018920898
aF0.0
aa(lp633
F535.99884033203125
aF0.0
aF0.0
aaF0.063873000000000957
aa(lp634
(lp635
F-0.97444528341293335
aF8.2185659408569336
aF0.0
aa(lp636
F535.99884033203125
aF0.0
aF0.0
aaF0.063850999999999658
aa(lp637
(lp638
F-1.0628135204315186
aF8.224116325378418
aF0.0
aa(lp639
F536.81365966796875
aF0.0
aF0.0
aaF0.063750999999996338
aa(lp640
(lp641
F-1.15140700340271
aF8.2277793884277344
aF0.0
aa(lp642
F538.4510498046875
aF0.0
aF0.0
aaF0.06384400000000312
aa(lp643
(lp644
F-1.2402085065841675
aF8.2282638549804688
aF0.0
aa(lp645
F540.923095703125
aF0.0
aF0.0
aaF0.063943000000008965
aa(lp646
(lp647
F-1.3268493413925171
aF8.2256431579589844
aF0.0
aa(lp648
F542.5430908203125
aF0.0
aF0.0
aaF0.062411999999994805
aa(lp649
(lp650
F-1.4128738641738892
aF8.2211942672729492
aF0.0
aa(lp651
F543.3775634765625
aF0.0
aF0.0
aaF0.062021000000001436
aa(lp652
(lp653
F-1.4999837875366211
aF8.2160120010375977
aF0.0
aa(lp654
F543.43133544921875
aF0.0
aF0.0
aaF0.062830000000005271
aa(lp655
(lp656
F-1.5864396095275879
aF8.2108278274536133
aF0.0
aa(lp657
F543.43133544921875
aF0.0
aF0.0
aaF0.062359999999998195
aa(lp658
(lp659
F-1.6737868785858154
aF8.2055912017822266
aF0.0
aa(lp660
F543.43133544921875
aF0.0
aF0.0
aaF0.063002999999994813
aa(lp661
(lp662
F-1.7598156929016113
aF8.2004327774047852
aF0.0
aa(lp663
F543.43133544921875
aF0.0
aF0.0
aaF0.062051999999994223
aa(lp664
(lp665
F-1.8467317819595337
aF8.195220947265625
aF0.0
aa(lp666
F543.43133544921875
aF0.0
aF0.0
aaF0.062692000000012627
aa(lp667
(lp668
F-1.9330157041549683
aF8.1900472640991211
aF0.0
aa(lp669
F543.43133544921875
aF0.0
aF0.0
aaF0.062235999999998626
aa(lp670
(lp671
F-2.0193579196929932
aF8.1848697662353516
aF0.0
aa(lp672
F543.43133544921875
aF0.0
aF0.0
aaF0.062277999999992062
aa(lp673
(lp674
F-2.1056528091430664
aF8.1796960830688477
aF0.0
aa(lp675
F543.43133544921875
aF0.0
aF0.0
aaF0.062244000000006849
aa(lp676
(lp677
F-2.1919243335723877
aF8.1745233535766602
aF0.0
aa(lp678
F543.43133544921875
aF0.0
aF0.0
aaF0.062226999999992927
aa(lp679
(lp680
F-2.2787377834320068
aF8.1693172454833984
aF0.0
aa(lp681
F543.43133544921875
aF0.0
aF0.0
aaF0.062618000000000507
aa(lp682
(lp683
F-2.3652768135070801
aF8.1641292572021484
aF0.0
aa(lp684
F543.43133544921875
aF0.0
aF0.0
aaF0.062420000000003029
aa(lp685
(lp686
F-2.4515247344970703
aF8.1589574813842773
aF0.0
aa(lp687
F543.43133544921875
aF0.0
aF0.0
aaF0.062209999999993215
aa(lp688
(lp689
F-2.5386378765106201
aF8.1537342071533203
aF0.0
aa(lp690
F543.43133544921875
aF0.0
aF0.0
aaF0.062834000000009382
aa(lp691
(lp692
F-2.6251442432403564
aF8.1491374969482422
aF0.0
aa(lp693
F542.65142822265625
aF0.0
aF0.0
aaF0.062372999999993795
aa(lp694
(lp695
F-2.712562084197998
aF8.14630126953125
aF0.0
aa(lp696
F541.06494140625
aF0.0
aF0.0
aaF0.062976000000006138
aa(lp697
(lp698
F-2.800217866897583
aF8.1452751159667969
aF0.0
aa(lp699
F540.2774658203125
aF0.0
aF0.0
aaF0.063116999999991208
aa(lp700
(lp701
F-2.8877918720245361
aF8.1448507308959961
aF0.0
aa(lp702
F540.2774658203125
aF0.0
aF0.0
aaF0.063054000000008159
aa(lp703
(lp704
F-2.9753978252410889
aF8.1444263458251953
aF0.0
aa(lp705
F540.2774658203125
aF0.0
aF0.0
aaF0.063076999999992722
aa(lp706
(lp707
F-3.064396858215332
aF8.1439952850341797
aF0.0
aa(lp708
F540.2774658203125
aF0.0
aF0.0
aaF0.064080000000004134
aa(lp709
(lp710
F-3.1523234844207764
aF8.1435689926147461
aF0.0
aa(lp711
F540.2774658203125
aF0.0
aF0.0
aaF0.063308000000006359
aa(lp712
(lp713
F-3.2406210899353027
aF8.1431417465209961
aF0.0
aa(lp714
F540.2774658203125
aF0.0
aF0.0
aaF0.063575000000000159
aa(lp715
(lp716
F-3.3278241157531738
aF8.1427192687988281
aF0.0
aa(lp717
F540.2774658203125
aF0.0
aF0.0
aaF0.062787000000000148
aa(lp718
(lp719
F-3.4154605865478516
aF8.1422948837280273
aF0.0
aa(lp720
F540.2774658203125
aF0.0
aF0.0
aaF0.063098999999994021
aa(lp721
(lp722
F-3.5040929317474365
aF8.1418657302856445
aF0.0
aa(lp723
F540.2774658203125
aF0.0
aF0.0
aaF0.063816000000002759
aa(lp724
(lp725
F-3.5936391353607178
aF8.1420831680297852
aF0.0
aa(lp726
F539.444091796875
aF0.0
aF0.0
aaF0.064474000000004139
aa(lp727
(lp728
F-3.6824393272399902
aF8.1442251205444336
aF0.0
aa(lp729
F537.79302978515625
aF0.0
aF0.0
aaF0.063956999999987829
aa(lp730
(lp731
F-3.7716383934020996
aF8.1483068466186523
aF0.0
aa(lp732
F536.96624755859375
aF0.0
aF0.0
aaF0.064291000000011422
aa(lp733
(lp734
F-3.8605759143829346
aF8.1530208587646484
aF0.0
aa(lp735
F536.966064453125
aF0.0
aF0.0
aaF0.064124999999989996
aa(lp736
(lp737
F-3.9502043724060059
aF8.157771110534668
aF0.0
aa(lp738
F536.966064453125
aF0.0
aF0.0
aaF0.064622999999997432
aa(lp739
(lp740
F-4.0392794609069824
aF8.1624917984008789
aF0.0
aa(lp741
F536.966064453125
aF0.0
aF0.0
aaF0.064224000000010051
aa(lp742
(lp743
F-4.1288895606994629
aF8.1672420501708984
aF0.0
aa(lp744
F536.966064453125
aF0.0
aF0.0
aaF0.064610000000001833
aa(lp745
(lp746
F-4.2186789512634277
aF8.1720008850097656
aF0.0
aa(lp747
F536.966064453125
aF0.0
aF0.0
aaF0.064738999999988778
aa(lp748
(lp749
F-4.3079147338867188
aF8.1767301559448242
aF0.0
aa(lp750
F536.966064453125
aF0.0
aF0.0
aaF0.064340000000001396
aa(lp751
(lp752
F-4.3968634605407715
aF8.1814441680908203
aF0.0
aa(lp753
F536.966064453125
aF0.0
aF0.0
aaF0.064132999999998219
aa(lp754
(lp755
F-4.4875125885009766
aF8.186248779296875
aF0.0
aa(lp756
F536.966064453125
aF0.0
aF0.0
aaF0.065359000000000833
aa(lp757
(lp758
F-4.5771450996398926
aF8.1909999847412109
aF0.0
aa(lp759
F536.966064453125
aF0.0
aF0.0
aaF0.064626000000004069
aa(lp760
(lp761
F-4.6662769317626953
aF8.1957235336303711
aF0.0
aa(lp762
F536.966064453125
aF0.0
aF0.0
aaF0.064265000000006012
aa(lp763
(lp764
F-4.755561351776123
aF8.2004556655883789
aF0.0
aa(lp765
F536.966064453125
aF0.0
aF0.0
aaF0.064374999999998295
aa(lp766
(lp767
F-4.8444008827209473
aF8.205164909362793
aF0.0
aa(lp768
F536.966064453125
aF0.0
aF0.0
aaF0.064053999999998723
aa(lp769
(lp770
F-4.9335312843322754
aF8.2098884582519531
aF0.0
aa(lp771
F536.966064453125
aF0.0
aF0.0
aaF0.064263999999994326
aa(lp772
(lp773
F-5.0226311683654785
aF8.2146110534667969
aF0.20000000298023224
aa(lp774
F536.966064453125
aF0.0
aF0.0
aaF0.064242000000007238
aa(lp775
(lp776
F-5.1116561889648438
aF8.219329833984375
aF0.20000000298023224
aa(lp777
F536.966064453125
aF0.0
aF0.0
aaF0.064188000000001466
aa(lp778
(lp779
F-5.2010197639465332
aF8.2240657806396484
aF0.20000000298023224
aa(lp780
F536.966064453125
aF0.0
aF0.0
aaF0.064431999999996492
aa(lp781
(lp782
F-5.2902431488037109
aF8.228795051574707
aF0.20000000298023224
aa(lp783
F536.966064453125
aF0.0
aF0.0
aaF0.064330999999995697
aa(lp784
(lp785
F-5.3791570663452148
aF8.2335071563720703
aF0.20000000298023224
aa(lp786
F536.966064453125
aF0.0
aF0.0
aaF0.064108000000004495
aa(lp787
(lp788
F-5.4688715934753418
aF8.2382621765136719
aF0.20000000298023224
aa(lp789
F536.966064453125
aF0.0
aF0.0
aaF0.064684999999997217
aa(lp790
(lp791
F-5.5580172538757324
aF8.2429876327514648
aF0.20000000298023224
aa(lp792
F536.966064453125
aF0.0
aF0.0
aaF0.064274999999994975
aa(lp793
(lp794
F-5.6477298736572266
aF8.2477426528930664
aF0.20000000298023224
aa(lp795
F536.966064453125
aF0.0
aF0.0
aaF0.064683999999999742
aa(lp796
(lp797
F-5.7268266677856445
aF8.2519340515136719
aF0.20000000298023224
aa(lp798
F536.966064453125
aF0.0
aF0.0
aaF0.065649000000007618
aa(lp799
(lp800
F-5.7932219505310059
aF8.2554531097412109
aF0.20000000298023224
aa(lp801
F536.966064453125
aF0.0
aF0.0
aaF0.064763999999996713
aa(lp802
(lp803
F-5.8484554290771484
aF8.2583808898925781
aF0.20000000298023224
aa(lp804
F536.966064453125
aF0.0
aF0.0
aaF0.065476000000003864
aa(lp805
(lp806
F-5.8914966583251953
aF8.2606620788574219
aF0.20000000298023224
aa(lp807
F536.966064453125
aF0.0
aF0.0
aaF0.064852999999999383
aa(lp808
(lp809
F-5.9226531982421875
aF8.2623138427734375
aF0.20000000298023224
aa(lp810
F536.966064453125
aF0.0
aF0.0
aaF0.064139999999994757
aa(lp811
(lp812
F-5.9424300193786621
aF8.263361930847168
aF0.20000000298023224
aa(lp813
F536.966064453125
aF0.0
aF0.0
aaF0.064385000000001469
aa(lp814
(lp815
F-5.9506850242614746
aF8.2637996673583984
aF0.20000000298023224
aa(lp816
F536.966064453125
aF0.0
aF0.0
aaF0.064827000000008184
aa(lp817
(lp818
F-5.9706263542175293
aF8.2648563385009766
aF0.20000000298023224
aa(lp819
F536.966064453125
aF0.0
aF0.0
aaF0.064886999999998807
aa(lp820
(lp821
F-6.0022172927856445
aF8.2665309906005859
aF0.20000000298023224
aa(lp822
F536.966064453125
aF0.0
aF0.0
aaF0.064842999999996209
aa(lp823
(lp824
F-6.0453896522521973
aF8.2686662673950195
aF0.20000000298023224
aa(lp825
F537.37005615234375
aF0.0
aF0.0
aaF0.064736999999993827
aa(lp826
(lp827
F-6.099815845489502
aF8.2706823348999023
aF0.20000000298023224
aa(lp828
F538.38751220703125
aF0.0
aF0.0
aaF0.064345000000002983
aa(lp829
(lp830
F-6.1658706665039062
aF8.2714700698852539
aF0.20000000298023224
aa(lp831
F540.24560546875
aF0.0
aF0.0
aaF0.06442599999999743
aa(lp832
(lp833
F-6.242546558380127
aF8.2692089080810547
aF0.20000000298023224
aa(lp834
F543.132080078125
aF0.0
aF0.0
aaF0.063793000000003985
aa(lp835
(lp836
F-6.3299350738525391
aF8.2612447738647461
aF0.20000000298023224
aa(lp837
F547.2830810546875
aF0.0
aF0.0
aaF0.063631000000000881
aa(lp838
(lp839
F-6.4175934791564941
aF8.2460527420043945
aF0.20000000298023224
aa(lp840
F552.38128662109375
aF0.0
aF0.0
aaF0.064076000000000022
aa(lp841
(lp842
F-6.5028014183044434
aF8.2226362228393555
aF0.20000000298023224
aa(lp843
F558.351318359375
aF0.0
aF0.0
aaF0.06365300000000218
aa(lp844
(lp845
F-6.5850481986999512
aF8.1897125244140625
aF0.20000000298023224
aa(lp846
F565.2821044921875
aF0.0
aF0.0
aaF0.063824999999994247
aa(lp847
(lp848
F-6.6621952056884766
aF8.1468362808227539
aF0.20000000298023224
aa(lp849
F572.8455810546875
aF0.0
aF0.0
aaF0.063594000000009032
aa(lp850
(lp851
F-6.7335433959960938
aF8.0937395095825195
aF0.20000000298023224
aa(lp852
F580.4671630859375
aF0.0
aF0.0
aaF0.064081999999999084
aa(lp853
(lp854
F-6.7965435981750488
aF8.0324001312255859
aF0.20000000298023224
aa(lp855
F588.00225830078125
aF0.0
aF0.0
aaF0.063355000000001382
aa(lp856
(lp857
F-6.8510947227478027
aF7.9631271362304688
aF0.20000000298023224
aa(lp858
F595.55828857421875
aF0.0
aF0.0
aaF0.063530999999997562
aa(lp859
(lp860
F-6.8953657150268555
aF7.8886542320251465
aF0.20000000298023224
aa(lp861
F602.9825439453125
aF0.0
aF0.0
aaF0.062422999999995454
aa(lp862
(lp863
F-6.9298300743103027
aF7.8085575103759766
aF0.20000000298023224
aa(lp864
F610.4547119140625
aF0.0
aF0.0
aaF0.062826000000001159
aa(lp865
(lp866
F-6.9535655975341797
aF7.7247514724731445
aF0.20000000298023224
aa(lp867
F617.9188232421875
aF0.0
aF0.0
aaF0.062758000000002312
aa(lp868
(lp869
F-6.9663252830505371
aF7.6371645927429199
aF0.20000000298023224
aa(lp870
F625.50390625
aF0.0
aF0.0
aaF0.063774999999992588
aa(lp871
(lp872
F-6.9674787521362305
aF7.5499172210693359
aF0.20000000298023224
aa(lp873
F632.9810791015625
aF0.0
aF0.0
aaF0.062868000000008806
aa(lp874
(lp875
F-6.9573612213134766
aF7.4637618064880371
aF0.20000000298023224
aa(lp876
F640.41473388671875
aF0.0
aF0.0
aaF0.06250199999999495
aa(lp877
(lp878
F-6.9359035491943359
aF7.3787779808044434
aF0.20000000298023224
aa(lp879
F647.9259033203125
aF0.0
aF0.0
aaF0.063153999999997268
aa(lp880
(lp881
F-6.9032330513000488
aF7.296722412109375
aF0.20000000298023224
aa(lp882
F655.49456787109375
aF0.0
aF0.0
aaF0.063636999999999944
aa(lp883
(lp884
F-6.8600015640258789
aF7.219627857208252
aF0.20000000298023224
aa(lp885
F663.06903076171875
aF0.0
aF0.0
aaF0.063686000000004128
aa(lp886
(lp887
F-6.8068523406982422
aF7.1487493515014648
aF0.20000000298023224
aa(lp888
F670.66094970703125
aF0.0
aF0.0
aaF0.063833000000002471
aa(lp889
(lp890
F-6.7536048889160156
aF7.0927319526672363
aF0.20000000298023224
aa(lp891
F676.43475341796875
aF0.0
aF0.0
aaF0.063814999999991073
aa(lp892
(lp893
F-6.7040271759033203
aF7.0489559173583984
aF0.20000000298023224
aa(lp894
F680.67694091796875
aF0.0
aF0.0
aaF0.063985000000002401
aa(lp895
(lp896
F-6.6590595245361328
aF7.0140724182128906
aF0.20000000298023224
aa(lp897
F683.7188720703125
aF0.0
aF0.0
aaF0.067177999999998406
aa(lp898
(lp899
F-6.6240577697753906
aF6.9892468452453613
aF0.20000000298023224
aa(lp900
F685.58758544921875
aF0.0
aF0.0
aaF0.06413300000001243
aa(lp901
(lp902
F-6.597926139831543
aF6.9717011451721191
aF0.20000000298023224
aa(lp903
F686.654296875
aF0.0
aF0.0
aaF0.064091999999988047
aa(lp904
(lp905
F-6.5810775756835938
aF6.9607172012329102
aF0.20000000298023224
aa(lp906
F687.1441650390625
aF0.0
aF0.0
aaF0.064447000000001253
aa(lp907
(lp908
F-6.5545659065246582
aF6.9439406394958496
aF0.20000000298023224
aa(lp909
F688.20550537109375
aF0.0
aF0.0
aaF0.064035000000004061
aa(lp910
(lp911
F-6.5182943344116211
aF6.9222517013549805
aF0.20000000298023224
aa(lp912
F690.0390625
aF0.0
aF0.0
aaF0.063440999999997416
aa(lp913
(lp914
F-6.4713315963745117
aF6.8967113494873047
aF0.20000000298023224
aa(lp915
F692.8818359375
aF0.0
aF0.0
aaF0.063461000000003764
aa(lp916
(lp917
F-6.4128117561340332
aF6.8693299293518066
aF0.20000000298023224
aa(lp918
F696.96868896484375
aF0.0
aF0.0
aaF0.06343800000000499
aa(lp919
(lp920
F-6.3415203094482422
aF6.8430562019348145
aF0.20000000298023224
aa(lp921
F702.56976318359375
aF0.0
aF0.0
aaF0.063588999999993234
aa(lp922
(lp923
F-6.2565350532531738
aF6.8222966194152832
aF0.20000000298023224
aa(lp924
F709.9759521484375
aF0.0
aF0.0
aaF0.063784999999995762
aa(lp925
(lp926
F-6.1682119369506836
aF6.8118467330932617
aF0.20000000298023224
aa(lp927
F716.52911376953125
aF0.0
aF0.0
aaF0.064070999999998435
aa(lp928
(lp929
F-6.0785279273986816
aF6.8108401298522949
aF0.20000000298023224
aa(lp930
F722.184814453125
aF0.0
aF0.0
aaF0.064603000000005295
aa(lp931
(lp932
F-5.9882464408874512
aF6.818058967590332
aF0.20000000298023224
aa(lp933
F726.9581298828125
aF0.0
aF0.0
aaF0.065229000000002202
aa(lp934
(lp935
F-5.8974266052246094
aF6.8323001861572266
aF0.20000000298023224
aa(lp936
F730.86566162109375
aF0.0
aF0.0
aaF0.066202000000004091
aa(lp937
(lp938
F-5.8068232536315918
aF6.8521733283996582
aF0.20000000298023224
aa(lp939
F733.87689208984375
aF0.0
aF0.0
aaF0.066792999999989888
aa(lp940
(lp941
F-5.7165355682373047
aF6.8762474060058594
aF0.20000000298023224
aa(lp942
F735.98284912109375
aF0.0
aF0.0
aaF0.067282000000005837
aa(lp943
(lp944
F-5.6279826164245605
aF6.9026064872741699
aF0.20000000298023224
aa(lp945
F737.170166015625
aF0.0
aF0.0
aaF0.066524000000001138
aa(lp946
(lp947
F-5.539238452911377
aF6.9302773475646973
aF0.20000000298023224
aa(lp948
F737.4654541015625
aF0.0
aF0.0
aaF0.066929999999999268
aa(lp949
(lp950
F-5.4508490562438965
aF6.9580879211425781
aF0.20000000298023224
aa(lp951
F737.4654541015625
aF0.0
aF0.0
aaF0.066715999999999553
aa(lp952
(lp953
F-5.3626508712768555
aF6.9858384132385254
aF0.20000000298023224
aa(lp954
F737.4654541015625
aF0.0
aF0.0
aaF0.066571999999993636
aa(lp955
(lp956
F-5.2743191719055176
aF7.012880802154541
aF0.20000000298023224
aa(lp957
F736.57843017578125
aF0.0
aF0.0
aaF0.066513000000000488
aa(lp958
(lp959
F-5.1850409507751465
aF7.0379486083984375
aF0.20000000298023224
aa(lp960
F734.7891845703125
aF0.0
aF0.0
aaF0.06676900000000785
aa(lp961
(lp962
F-5.0963358879089355
aF7.0591950416564941
aF0.20000000298023224
aa(lp963
F732.14996337890625
aF0.0
aF0.0
aaF0.065680000000000405
aa(lp964
(lp965
F-5.0056781768798828
aF7.0757689476013184
aF0.20000000298023224
aa(lp966
F728.570556640625
aF0.0
aF0.0
aaF0.066366000000002145
aa(lp967
(lp968
F-4.9150075912475586
aF7.0872945785522461
aF0.0
aa(lp969
F725.91845703125
aF0.0
aF0.0
aaF0.065813999999988937
aa(lp970
(lp971
F-4.8255653381347656
aF7.0951857566833496
aF0.0
aa(lp972
F724.165283203125
aF0.0
aF0.0
aaF0.064651000000012004
aa(lp973
(lp974
F-4.7351245880126953
aF7.1010499000549316
aF0.0
aa(lp975
F723.25445556640625
aF0.0
aF0.0
aaF0.065254999999993402
aa(lp976
(lp977
F-4.644472599029541
aF7.1061606407165527
aF0.0
aa(lp978
F723.19903564453125
aF0.0
aF0.0
aaF0.065372999999993908
aa(lp979
(lp980
F-4.5546836853027344
aF7.1111793518066406
aF0.0
aa(lp981
F723.19903564453125
aF0.0
aF0.0
aaF0.064749000000006163
aa(lp982
(lp983
F-4.4645147323608398
aF7.1162190437316895
aF0.0
aa(lp984
F723.19903564453125
aF0.0
aF0.0
aaF0.0650229999999965
aa(lp985
(lp986
F-4.3746771812438965
aF7.1212401390075684
aF0.0
aa(lp987
F723.19903564453125
aF0.0
aF0.0
aaF0.064784000000003061
aa(lp988
(lp989
F-4.2845120429992676
aF7.126279354095459
aF0.0
aa(lp990
F723.19903564453125
aF0.0
aF0.0
aaF0.065020000000004075
aa(lp991
(lp992
F-4.1943745613098145
aF7.1306500434875488
aF0.0
aa(lp993
F722.3525390625
aF0.0
aF0.0
aaF0.064976000000001477
aa(lp994
(lp995
F-4.1042766571044922
aF7.1330175399780273
aF0.0
aa(lp996
F720.65838623046875
aF0.0
aF0.0
aaF0.06489499999999282
aa(lp997
(lp998
F-4.0151963233947754
aF7.1333842277526855
aF0.0
aa(lp999
F719.8131103515625
aF0.0
aF0.0
aaF0.064138999999997282
aa(lp1000
(lp1001
F-3.9258220195770264
aF7.1330785751342773
aF0.0
aa(lp1002
F719.7952880859375
aF0.0
aF0.0
aaF0.06435000000000457
aa(lp1003
(lp1004
F-3.8369100093841553
aF7.1327610015869141
aF0.0
aa(lp1005
F719.7952880859375
aF0.0
aF0.0
aaF0.064017000000006874
aa(lp1006
(lp1007
F-3.7481801509857178
aF7.132443904876709
aF0.0
aa(lp1008
F719.7952880859375
aF0.0
aF0.0
aaF0.063885999999996557
aa(lp1009
(lp1010
F-3.6577849388122559
aF7.1321210861206055
aF0.0
aa(lp1011
F719.7952880859375
aF0.0
aF0.0
aaF0.065084999999996285
aa(lp1012
(lp1013
F-3.5689172744750977
aF7.1318035125732422
aF0.0
aa(lp1014
F719.7952880859375
aF0.0
aF0.0
aaF0.063985000000002401
aa(lp1015
(lp1016
F-3.479935884475708
aF7.1314854621887207
aF0.0
aa(lp1017
F719.7952880859375
aF0.0
aF0.0
aaF0.064066999999994323
aa(lp1018
(lp1019
F-3.3911199569702148
aF7.1311683654785156
aF0.0
aa(lp1020
F719.7952880859375
aF0.0
aF0.0
aaF0.063948000000010552
aa(lp1021
(lp1022
F-3.301727294921875
aF7.1308488845825195
aF0.0
aa(lp1023
F719.7952880859375
aF0.0
aF0.0
aaF0.06436300000000017
aa(lp1024
(lp1025
F-3.2118127346038818
aF7.1298680305480957
aF0.0
aa(lp1026
F718.95489501953125
aF0.0
aF0.0
aaF0.06474299999999289
aa(lp1027
(lp1028
F-3.1222422122955322
aF7.126922607421875
aF0.0
aa(lp1029
F717.27813720703125
aF0.0
aF0.0
aaF0.0645279999999957
aa(lp1030
(lp1031
F-3.0321409702301025
aF7.121978759765625
aF0.0
aa(lp1032
F716.4405517578125
aF0.0
aF0.0
aaF0.06497099999999989
aa(lp1033
(lp1034
F-2.9435789585113525
aF7.1164655685424805
aF0.0
aa(lp1035
F716.43524169921875
aF0.0
aF0.0
aaF0.063888000000005718
aa(lp1036
(lp1037
F-2.8555662631988525
aF7.1109824180603027
aF0.0
aa(lp1038
F716.43524169921875
aF0.0
aF0.0
aaF0.063491999999996551
aa(lp1039
(lp1040
F-2.7675743103027344
aF7.1055011749267578
aF0.0
aa(lp1041
F716.43524169921875
aF0.0
aF0.0
aaF0.063477000000006001
aa(lp1042
(lp1043
F-2.6791887283325195
aF7.0999946594238281
aF0.0
aa(lp1044
F716.43524169921875
aF0.0
aF0.0
aaF0.063760999999999513
aa(lp1045
(lp1046
F-2.5908932685852051
aF7.0944943428039551
aF0.0
aa(lp1047
F716.43524169921875
aF0.0
aF0.0
aaF0.063695999999993091
aa(lp1048
(lp1049
F-2.5028529167175293
aF7.0890097618103027
aF0.0
aa(lp1050
F716.43524169921875
aF0.0
aF0.0
aaF0.063512000000002899
aa(lp1051
(lp1052
F-2.4140486717224121
aF7.0834774971008301
aF0.0
aa(lp1053
F716.43524169921875
aF0.0
aF0.0
aaF0.064063000000004422
aa(lp1054
(lp1055
F-2.3244016170501709
aF7.0778927803039551
aF0.0
aa(lp1056
F716.43524169921875
aF0.0
aF0.0
aaF0.064670999999989931
aa(lp1057
(lp1058
F-2.2351293563842773
aF7.0716800689697266
aF0.0
aa(lp1059
F715.6029052734375
aF0.0
aF0.0
aaF0.064432000000010703
aa(lp1060
(lp1061
F-2.1471219062805176
aF7.0636458396911621
aF0.0
aa(lp1062
F713.96502685546875
aF0.0
aF0.0
aaF0.063631000000000881
aa(lp1063
(lp1064
F-2.0591394901275635
aF7.0537056922912598
aF0.0
aa(lp1065
F713.14300537109375
aF0.0
aF0.0
aaF0.063750999999996338
aa(lp1066
(lp1067
F-1.9713835716247559
aF7.0431461334228516
aF0.0
aa(lp1068
F713.13446044921875
aF0.0
aF0.0
aaF0.063639999999992369
aa(lp1069
(lp1070
F-1.8841937780380249
aF7.0326480865478516
aF0.0
aa(lp1071
F713.13446044921875
aF0.0
aF0.0
aaF0.063230000000004338
aa(lp1072
(lp1073
F-1.7970165014266968
aF7.0221519470214844
aF0.0
aa(lp1074
F713.13446044921875
aF0.0
aF0.0
aaF0.063220999999998639
aa(lp1075
(lp1076
F-1.7092366218566895
aF7.0115828514099121
aF0.0
aa(lp1077
F713.13446044921875
aF0.0
aF0.0
aaF0.063658000000003767
aa(lp1078
(lp1079
F-1.6219655275344849
aF7.001075267791748
aF0.0
aa(lp1080
F713.13446044921875
aF0.0
aF0.0
aaF0.063288999999997486
aa(lp1081
(lp1082
F-1.5318787097930908
aF6.9902281761169434
aF0.0
aa(lp1083
F713.13446044921875
aF0.0
aF0.0
aaF0.065331000000000472
aa(lp1084
(lp1085
F-1.4435347318649292
aF6.9795913696289062
aF0.0
aa(lp1086
F713.13446044921875
aF0.0
aF0.0
aaF0.064067000000008534
aa(lp1087
(lp1088
F-1.3560389280319214
aF6.9690566062927246
aF0.0
aa(lp1089
F713.13446044921875
aF0.0
aF0.0
aaF0.063451999999998066
aa(lp1090
(lp1091
F-1.2684423923492432
aF6.9585099220275879
aF0.0
aa(lp1092
F713.13446044921875
aF0.0
aF0.0
aaF0.063524999999998499
aa(lp1093
(lp1094
F-1.1803328990936279
aF6.9479012489318848
aF0.0
aa(lp1095
F713.13446044921875
aF0.0
aF0.0
aaF0.063896999999997206
aa(lp1096
(lp1097
F-1.0923455953598022
aF6.9379415512084961
aF0.0
aa(lp1098
F713.94940185546875
aF0.0
aF0.0
aaF0.063755999999997925
aa(lp1099
(lp1100
F-1.0037201642990112
aF6.9298334121704102
aF0.0
aa(lp1101
F715.59588623046875
aF0.0
aF0.0
aaF0.064079000000006658
aa(lp1102
(lp1103
F-0.91544008255004883
aF6.923668384552002
aF0.0
aa(lp1104
F716.41497802734375
aF0.0
aF0.0
aaF0.063716999999996915
aa(lp1105
(lp1106
F-0.82687056064605713
aF6.9181218147277832
aF0.0
aa(lp1107
F716.41778564453125
aF0.0
aF0.0
aaF0.063895000000002256
aa(lp1108
(lp1109
F-0.73810678720474243
aF6.912564754486084
aF0.0
aa(lp1110
F716.41778564453125
aF0.0
aF0.0
aaF0.06403499999998985
aa(lp1111
(lp1112
F-0.64904087781906128
aF6.9069890975952148
aF0.0
aa(lp1113
F716.41778564453125
aF0.0
aF0.0
aaF0.064253000000007887
aa(lp1114
(lp1115
F-0.56065279245376587
aF6.9014558792114258
aF0.0
aa(lp1116
F716.41778564453125
aF0.0
aF0.0
aaF0.063763999999991938
aa(lp1117
(lp1118
F-0.47201243042945862
aF6.8959064483642578
aF0.0
aa(lp1119
F716.41778564453125
aF0.0
aF0.0
aaF0.063946000000001391
aa(lp1120
(lp1121
F-0.38318353891372681
aF6.890345573425293
aF0.0
aa(lp1122
F716.41778564453125
aF0.0
aF0.0
aaF0.064081999999999084
aa(lp1123
(lp1124
F-0.2941623330116272
aF6.8854169845581055
aF0.0
aa(lp1125
F717.2440185546875
aF0.0
aF0.0
aaF0.064194000000000528
aa(lp1126
(lp1127
F-0.20538674294948578
aF6.8824219703674316
aF0.0
aa(lp1128
F718.89141845703125
aF0.0
aF0.0
aaF0.06395700000000204
aa(lp1129
(lp1130
F-0.11520829796791077
aF6.8826689720153809
aF0.0
aa(lp1131
F721.42242431640625
aF0.0
aF0.0
aaF0.064934000000008041
aa(lp1132
(lp1133
F-0.025429492816329002
aF6.8875589370727539
aF0.0
aa(lp1134
F724.81298828125
aF0.0
aF0.0
aaF0.064745999999999526
aa(lp1135
(lp1136
F0.063549019396305084
aF6.8970217704772949
aF0.0
aa(lp1137
F727.32855224609375
aF0.0
aF0.0
aaF0.064430999999999017
aa(lp1138
(lp1139
F0.1516115814447403
aF6.9096512794494629
aF0.0
aa(lp1140
F728.99395751953125
aF0.0
aF0.0
aaF0.064055999999993674
aa(lp1141
(lp1142
F0.23996727168560028
aF6.9242992401123047
aF0.0
aa(lp1143
F729.83251953125
aF0.0
aF0.0
aaF0.064485000000004788
aa(lp1144
(lp1145
F0.32822176814079285
aF6.9395990371704102
aF0.0
aa(lp1146
F729.8372802734375
aF0.0
aF0.0
aaF0.064491000000003851
aa(lp1147
(lp1148
F0.4161992073059082
aF6.9548540115356445
aF0.0
aa(lp1149
F729.8372802734375
aF0.0
aF0.0
aaF0.06428899999998805
aa(lp1150
(lp1151
F0.50441610813140869
aF6.9701509475708008
aF0.0
aa(lp1152
F729.8372802734375
aF0.0
aF0.0
aaF0.064464000000000965
aa(lp1153
(lp1154
F0.59418624639511108
aF6.9857172966003418
aF0.0
aa(lp1155
F729.8372802734375
aF0.0
aF0.0
aaF0.065599000000005958
aa(lp1156
(lp1157
F0.67116355895996094
aF6.9990649223327637
aF0.0
aa(lp1158
F729.8372802734375
aF0.0
aF0.0
aaF0.064595999999994547
aa(lp1159
(lp1160
F0.73678594827651978
aF7.0104436874389648
aF0.0
aa(lp1161
F729.8372802734375
aF0.0
aF0.0
aaF0.064674000000010778
aa(lp1162
(lp1163
F0.79073226451873779
aF7.0197982788085938
aF0.0
aa(lp1164
F729.8372802734375
aF0.0
aF0.0
aaF0.064329000000000747
aa(lp1165
(lp1166
F0.83330386877059937
aF7.0271801948547363
aF0.0
aa(lp1167
F729.8372802734375
aF0.0
aF0.0
aaF0.064228999999997427
aa(lp1168
(lp1169
F0.86468046903610229
aF7.032620906829834
aF0.0
aa(lp1170
F729.8372802734375
aF0.0
aF0.0
aaF0.064537999999998874
aa(lp1171
(lp1172
F0.88462650775909424
aF7.0360794067382812
aF0.0
aa(lp1173
F729.8372802734375
aF0.0
aF0.0
aaF0.064306999999999448
aa(lp1174
(lp1175
F0.89323890209197998
aF7.0375728607177734
aF0.0
aa(lp1176
F729.8372802734375
aF0.0
aF0.0
aaF0.064663999999993393
aa(lp1177
(lp1178
F0.89323890209197998
aF7.0375728607177734
aF0.0
aa(lp1179
F729.8372802734375
aF0.0
aF0.0
aaF0.064582999999998947
aa(lp1180
(lp1181
F0.89323890209197998
aF7.0375728607177734
aF0.0
aa(lp1182
F729.8372802734375
aF0.0
aF0.0
aaF0.063543000000009897
aa(lp1183
(lp1184
F0.89323890209197998
aF7.0375728607177734
aF0.0
aa(lp1185
F729.8372802734375
aF0.0
aF0.0
aaF0.064059999999997785
aa(lp1186
(lp1187
F0.89323890209197998
aF7.0375728607177734
aF0.0
aa(lp1188
F729.8372802734375
aF0.0
aF0.0
aaF0.064259999999990214
aa(lp1189
(lp1190
F0.90439939498901367
aF7.0395078659057617
aF0.0
aa(lp1191
F729.8372802734375
aF0.0
aF0.0
aaF0.063857000000012931
aa(lp1192
(lp1193
F0.92721712589263916
aF7.0434646606445312
aF0.0
aa(lp1194
F729.8372802734375
aF0.0
aF0.0
aaF0.064799999999991087
aa(lp1195
(lp1196
F0.9612613320350647
aF7.0493679046630859
aF0.0
aa(lp1197
F729.8372802734375
aF0.0
aF0.0
aaF0.064423000000005004
aa(lp1198
(lp1199
F1.0070369243621826
aF7.0573053359985352
aF0.0
aa(lp1200
F729.8372802734375
aF0.0
aF0.0
aaF0.06484499999999116
aa(lp1201
(lp1202
F1.0647011995315552
aF7.0673046112060547
aF0.0
aa(lp1203
F729.8372802734375
aF0.0
aF0.0
aaF0.065203000000011002
aa(lp1204
(lp1205
F1.1345368623733521
aF7.079413890838623
aF0.0
aa(lp1206
F729.8372802734375
aF0.0
aF0.0
aaF0.065634000000002857
aa(lp1207
(lp1208
F1.2153481245040894
aF7.0934267044067383
aF0.0
aa(lp1209
F729.8372802734375
aF0.0
aF0.0
aaF0.065061000000000035
aa(lp1210
(lp1211
F1.3054467439651489
aF7.1090497970581055
aF0.0
aa(lp1212
F729.8372802734375
aF0.0
aF0.0
aaF0.065838999999996872
aa(lp1213
(lp1214
F1.3950321674346924
aF7.1245837211608887
aF0.0
aa(lp1215
F729.8372802734375
aF0.0
aF0.0
aaF0.065463999999991529
aa(lp1216
(lp1217
F1.4846339225769043
aF7.1401209831237793
aF0.0
aa(lp1218
F729.8372802734375
aF0.0
aF0.0
aaF0.065476000000003864
aa(lp1219
(lp1220
F1.5740495920181274
aF7.1556253433227539
aF0.0
aa(lp1221
F729.8372802734375
aF0.0
aF0.0
aaF0.065340000000006171
aa(lp1222
(lp1223
F1.6630958318710327
aF7.1710662841796875
aF0.0
aa(lp1224
F729.8372802734375
aF0.0
aF0.0
aaF0.065069999999991524
aa(lp1225
(lp1226
F1.7413556575775146
aF7.184636116027832
aF0.0
aa(lp1227
F729.8372802734375
aF0.0
aF0.0
aaF0.065864000000004808
aa(lp1228
(lp1229
F1.8070036172866821
aF7.1960196495056152
aF0.0
aa(lp1230
F729.8372802734375
aF0.0
aF0.0
aaF0.064973999999992316
aa(lp1231
(lp1232
F1.8608894348144531
aF7.2053632736206055
aF0.0
aa(lp1233
F729.8372802734375
aF0.0
aF0.0
aaF0.064657000000011067
aa(lp1234
(lp1235
F1.9035686254501343
aF7.2127642631530762
aF0.0
aa(lp1236
F729.8372802734375
aF0.0
aF0.0
aaF0.06514899999999102
aa(lp1237
(lp1238
F1.9344924688339233
aF7.2181262969970703
aF0.0
aa(lp1239
F729.8372802734375
aF0.0
aF0.0
aaF0.064686000000008903
aa(lp1240
(lp1241
F1.9539457559585571
aF7.2214994430541992
aF0.0
aa(lp1242
F729.8372802734375
aF0.0
aF0.0
aaF0.064537999999998874
aa(lp1243
(lp1244
F1.9619550704956055
aF7.2228884696960449
aF0.0
aa(lp1245
F729.8372802734375
aF0.0
aF0.0
aaF0.065356999999991672
aa(lp1246
(lp1247
F1.9619550704956055
aF7.2228884696960449
aF0.0
aa(lp1248
F729.8372802734375
aF0.0
aF0.0
aaF0.064689999999998804
aa(lp1249
(lp1250
F1.9619550704956055
aF7.2228884696960449
aF0.0
aa(lp1251
F729.8372802734375
aF0.0
aF0.0
aaF0.064047000000002186
aa(lp1252
(lp1253
F1.9619550704956055
aF7.2228884696960449
aF0.0
aa(lp1254
F729.8372802734375
aF0.0
aF0.0
aaF0.064633999999998082
aa(lp1255
(lp1256
F1.9733128547668457
aF7.2248578071594238
aF0.0
aa(lp1257
F729.8372802734375
aF0.0
aF0.0
aaF0.064419000000000892
aa(lp1258
(lp1259
F1.9963198900222778
aF7.2288923263549805
aF0.0
aa(lp1260
F730.056396484375
aF0.0
aF0.0
aaF0.064982999999998015
aa(lp1261
(lp1262
F2.0310020446777344
aF7.2352509498596191
aF0.0
aa(lp1263
F730.72088623046875
aF0.0
aF0.0
aaF0.065222000000005664
aa(lp1264
(lp1265
F2.0776998996734619
aF7.244666576385498
aF0.0
aa(lp1266
F732.07867431640625
aF0.0
aF0.0
aaF0.065843000000000984
aa(lp1267
(lp1268
F2.1357097625732422
aF7.258293628692627
aF0.0
aa(lp1269
F734.3612060546875
aF0.0
aF0.0
aaF0.065762000000006537
aa(lp1270
(lp1271
F2.2050998210906982
aF7.2783341407775879
aF0.0
aa(lp1272
F737.85699462890625
aF0.0
aF0.0
aaF0.066257999999990602
aa(lp1273
(lp1274
F2.2838616371154785
aF7.3075060844421387
aF0.0
aa(lp1275
F742.79046630859375
aF0.0
aF0.0
aaF0.065972999999999615
aa(lp1276
(lp1277
F2.3667585849761963
aF7.3461704254150391
aF0.0
aa(lp1278
F747.219482421875
aF0.0
aF0.0
aaF0.065875000000005457
aa(lp1279
(lp1280
F2.44732666015625
aF7.3908004760742188
aF0.0
aa(lp1281
F750.74822998046875
aF0.0
aF0.0
aaF0.066324999999991974
aa(lp1282
(lp1283
F2.5255768299102783
aF7.4398093223571777
aF0.0
aa(lp1284
F753.37060546875
aF0.0
aF0.0
aaF0.066484000000002652
aa(lp1285
(lp1286
F2.6021671295166016
aF7.4919247627258301
aF0.0
aa(lp1287
F755.0955810546875
aF0.0
aF0.0
aaF0.066703000000003954
aa(lp1288
(lp1289
F2.6775884628295898
aF7.5457420349121094
aF0.0
aa(lp1290
F755.92401123046875
aF0.0
aF0.0
aaF0.066710999999997966
aa(lp1291
(lp1292
F2.7525687217712402
aF7.6000666618347168
aF0.0
aa(lp1293
F755.92401123046875
aF0.0
aF0.0
aaF0.066665999999997894
aa(lp1294
(lp1295
F2.8297569751739502
aF7.6559906005859375
aF0.0
aa(lp1296
F755.92401123046875
aF0.0
aF0.0
aaF0.068629000000001383
aa(lp1297
(lp1298
F2.9056611061096191
aF7.7100777626037598
aF0.0
aa(lp1299
F755.02105712890625
aF0.0
aF0.0
aaF0.067107000000007133
aa(lp1300
(lp1301
F2.9824917316436768
aF7.7621378898620605
aF0.0
aa(lp1302
F753.22161865234375
aF0.0
aF0.0
aaF0.066823999999996886
aa(lp1303
(lp1304
F3.0611879825592041
aF7.811063289642334
aF0.0
aa(lp1305
F750.51715087890625
aF0.0
aF0.0
aaF0.066724999999991041
aa(lp1306
(lp1307
F3.1429600715637207
aF7.8558130264282227
aF0.0
aa(lp1308
F746.86224365234375
aF0.0
aF0.0
aaF0.067127000000013481
aa(lp1309
(lp1310
F3.2277181148529053
aF7.8945426940917969
aF0.0
aa(lp1311
F742.2530517578125
aF0.0
aF0.0
aaF0.067112999999991985
aa(lp1312
(lp1313
F3.3162143230438232
aF7.9257655143737793
aF0.0
aa(lp1314
F736.61407470703125
aF0.0
aF0.0
aaF0.06759399999999971
aa(lp1315
(lp1316
F3.4081270694732666
aF7.9474143981933594
aF0.0
aa(lp1317
F729.89349365234375
aF0.0
aF0.0
aaF0.068027000000000726
aa(lp1318
(lp1319
F3.5000412464141846
aF7.957207202911377
aF0.0
aa(lp1320
F722.2696533203125
aF0.0
aF0.0
aaF0.066602000000003159
aa(lp1321
(lp1322
F3.5913243293762207
aF7.9545884132385254
aF0.0
aa(lp1323
F714.44354248046875
aF0.0
aF0.0
aaF0.065801999999990812
aa(lp1324
(lp1325
F3.6687068939208984
aF7.9430608749389648
aF0.0
aa(lp1326
F708.61090087890625
aF0.0
aF0.0
aaF0.064736000000010563
aa(lp1327
(lp1328
F3.7328414916992188
aF7.9276642799377441
aF0.0
aa(lp1329
F704.38995361328125
aF0.0
aF0.0
aaF0.063963999999998578
aa(lp1330
(lp1331
F3.7851364612579346
aF7.9115948677062988
aF0.0
aa(lp1332
F701.4473876953125
aF0.0
aF0.0
aaF0.064122999999995045
aa(lp1333
(lp1334
F3.8260114192962646
aF7.8971171379089355
aF0.0
aa(lp1335
F699.54571533203125
aF0.0
aF0.0
aaF0.064268999999995913
aa(lp1336
(lp1337
F3.8556840419769287
aF7.8857283592224121
aF0.0
aa(lp1338
F698.45819091796875
aF0.0
aF0.0
aaF0.06393100000001084
aa(lp1339
(lp1340
F3.8746843338012695
aF7.8781309127807617
aF0.0
aa(lp1341
F697.95233154296875
aF0.0
aF0.0
aaF0.064160000000001105
aa(lp1342
(lp1343
F3.8830490112304688
aF7.8747310638427734
aF0.0
aa(lp1344
F697.81365966796875
aF0.0
aF0.0
aaF0.064133999999995694
aa(lp1345
(lp1346
F3.8830490112304688
aF7.8747310638427734
aF0.0
aa(lp1347
F697.81365966796875
aF0.0
aF0.0
aaF0.064238000000003126
aa(lp1348
(lp1349
F3.8936474323272705
aF7.8704090118408203
aF0.0
aa(lp1350
F697.81365966796875
aF0.0
aF0.0
aaF0.064190999999993892
aa(lp1351
(lp1352
F3.9150047302246094
aF7.8617458343505859
aF0.0
aa(lp1353
F698.0281982421875
aF0.0
aF0.0
aaF0.064481999999998152
aa(lp1354
(lp1355
F3.9469740390777588
aF7.849055290222168
aF0.0
aa(lp1356
F698.6688232421875
aF0.0
aF0.0
aaF0.064200999999997066
aa(lp1357
(lp1358
F3.9899768829345703
aF7.832817554473877
aF0.0
aa(lp1359
F699.9583740234375
aF0.0
aF0.0
aaF0.06433700000000897
aa(lp1360
(lp1361
F4.0454888343811035
aF7.8137764930725098
aF0.0
aa(lp1362
F702.1771240234375
aF0.0
aF0.0
aaF0.06547700000000134
aa(lp1363
(lp1364
F4.114323616027832
aF7.7938990592956543
aF0.0
aa(lp1365
F705.60888671875
aF0.0
aF0.0
aaF0.06631500000000301
aa(lp1366
(lp1367
F4.1945381164550781
aF7.775632381439209
aF0.0
aa(lp1368
F708.7330322265625
aF0.0
aF0.0
aaF0.065211999999988279
aa(lp1369
(lp1370
F4.2827553749084473
aF7.7600827217102051
aF0.0
aa(lp1371
F711.2738037109375
aF0.0
aF0.0
aaF0.064501000000007025
aa(lp1372
(lp1373
F4.3707008361816406
aF7.7479052543640137
aF0.0
aa(lp1374
F712.95953369140625
aF0.0
aF0.0
aaF0.063926999999992518
aa(lp1375
(lp1376
F4.4596214294433594
aF7.7376017570495605
aF0.0
aa(lp1377
F713.82171630859375
aF0.0
aF0.0
aaF0.06445200000000284
aa(lp1378
(lp1379
F4.5484676361083984
aF7.7280082702636719
aF0.0
aa(lp1380
F713.8524169921875
aF0.0
aF0.0
aaF0.064340999999998871
aa(lp1381
(lp1382
F4.6375565528869629
aF7.7184123992919922
aF0.0
aa(lp1383
F713.8524169921875
aF0.0
aF0.0
aaF0.0645150000000001
aa(lp1384
(lp1385
F4.7263140678405762
aF7.7088527679443359
aF0.0
aa(lp1386
F713.8524169921875
aF0.0
aF0.0
aaF0.064275000000009186
aa(lp1387
(lp1388
F4.816105842590332
aF7.699181079864502
aF0.0
aa(lp1389
F713.8524169921875
aF0.0
aF0.0
aaF0.065023999999993976
aa(lp1390
(lp1391
F4.9058132171630859
aF7.689518928527832
aF0.0
aa(lp1392
F713.8524169921875
aF0.0
aF0.0
aaF0.064963000000005877
aa(lp1393
(lp1394
F4.9950804710388184
aF7.6799039840698242
aF0.0
aa(lp1395
F713.8524169921875
aF0.0
aF0.0
aaF0.064644000000001256
aa(lp1396
(lp1397
F5.0845394134521484
aF7.6702685356140137
aF0.20000000298023224
aa(lp1398
F713.8524169921875
aF0.0
aF0.0
aaF0.064782999999991375
aa(lp1399
(lp1400
F5.1752920150756836
aF7.6604933738708496
aF0.20000000298023224
aa(lp1401
F713.8524169921875
aF0.0
aF0.0
aaF0.06571999999999889
aa(lp1402
(lp1403
F5.2657999992370605
aF7.6514315605163574
aF0.20000000298023224
aa(lp1404
F714.71240234375
aF0.0
aF0.0
aaF0.065492000000006101
aa(lp1405
(lp1406
F5.3560023307800293
aF7.644439697265625
aF0.20000000298023224
aa(lp1407
F716.423095703125
aF0.0
aF0.0
aaF0.065142999999991957
aa(lp1408
(lp1409
F5.4489102363586426
aF7.6408038139343262
aF0.20000000298023224
aa(lp1410
F719.09454345703125
aF0.0
aF0.0
aaF0.066951000000003091
aa(lp1411
(lp1412
F5.5409722328186035
aF7.640754222869873
aF0.20000000298023224
aa(lp1413
F720.84423828125
aF0.0
aF0.0
aaF0.066287000000002649
aa(lp1414
(lp1415
F5.6322774887084961
aF7.6427884101867676
aF0.20000000298023224
aa(lp1416
F721.70831298828125
aF0.0
aF0.0
aaF0.06575700000000495
aa(lp1417
(lp1418
F5.7244892120361328
aF7.6455388069152832
aF0.20000000298023224
aa(lp1419
F721.70831298828125
aF0.0
aF0.0
aaF0.066421999999988657
aa(lp1420
(lp1421
F5.8168220520019531
aF7.6482925415039062
aF0.20000000298023224
aa(lp1422
F721.70831298828125
aF0.0
aF0.0
aaF0.066509000000010587
aa(lp1423
(lp1424
F5.8963613510131836
aF7.6506648063659668
aF0.20000000298023224
aa(lp1425
F721.70831298828125
aF0.0
aF0.0
aaF0.066007999999996514
aa(lp1426
(lp1427
F5.963813304901123
aF7.6526765823364258
aF0.20000000298023224
aa(lp1428
F721.70831298828125
aF0.0
aF0.0
aaF0.066019999999994639
aa(lp1429
(lp1430
F6.0191493034362793
aF7.6543269157409668
aF0.20000000298023224
aa(lp1431
F721.70831298828125
aF0.0
aF0.0
aaF0.065998000000007551
aa(lp1432
(lp1433
F6.0628576278686523
aF7.6556305885314941
aF0.20000000298023224
aa(lp1434
F721.70831298828125
aF0.0
aF0.0
aaF0.066992999999996528
aa(lp1435
(lp1436
F6.0940227508544922
aF7.656559944152832
aF0.20000000298023224
aa(lp1437
F721.70831298828125
aF0.0
aF0.0
aaF0.066699999999997317
aa(lp1438
(lp1439
F6.1128315925598145
aF7.6571211814880371
aF0.20000000298023224
aa(lp1440
F721.70831298828125
aF0.0
aF0.0
aaF0.066665000000000418
aa(lp1441
(lp1442
F6.1193442344665527
aF7.6573152542114258
aF0.20000000298023224
aa(lp1443
F721.70831298828125
aF0.0
aF0.0
aaF0.066162000000005605
aa(lp1444
(lp1445
F6.1193442344665527
aF7.6573152542114258
aF0.20000000298023224
aa(lp1446
F721.70831298828125
aF0.0
aF0.0
aaF0.066413999999994644
aa(lp1447
(lp1448
F6.1193442344665527
aF7.6573152542114258
aF0.20000000298023224
aa(lp1449
F721.70831298828125
aF0.0
aF0.0
aaF0.065252999999998451
aa(lp1450
(lp1451
F6.1193442344665527
aF7.6573152542114258
aF0.20000000298023224
aa(lp1452
F721.70831298828125
aF0.0
aF0.0
aaF0.065742999999997664
aa(lp1453
(lp1454
F6.1312527656555176
aF7.6576824188232422
aF0.20000000298023224
aa(lp1455
F721.82098388671875
aF0.0
aF0.0
aaF0.065491000000008626
aa(lp1456
(lp1457
F6.1555075645446777
aF7.6585512161254883
aF0.20000000298023224
aa(lp1458
F722.283935546875
aF0.0
aF0.0
aaF0.066298000000003299
aa(lp1459
(lp1460
F6.1918430328369141
aF7.6603331565856934
aF0.20000000298023224
aa(lp1461
F723.3310546875
aF0.0
aF0.0
aaF0.066160999999993919
aa(lp1462
(lp1463
F6.2409238815307617
aF7.6640105247497559
aF0.20000000298023224
aa(lp1464
F725.2388916015625
aF0.0
aF0.0
aaF0.066902999999996382
aa(lp1465
(lp1466
F6.3023562431335449
aF7.6712865829467773
aF0.20000000298023224
aa(lp1467
F728.27001953125
aF0.0
aF0.0
aaF0.067097000000003959
aa(lp1468
(lp1469
F6.3756542205810547
aF7.6848578453063965
aF0.20000000298023224
aa(lp1470
F732.70941162109375
aF0.0
aF0.0
aaF0.067241999999993141
aa(lp1471
(lp1472
F6.460597038269043
aF7.7089376449584961
aF0.20000000298023224
aa(lp1473
F738.94482421875
aF0.0
aF0.0
aaF0.068058000000007723
aa(lp1474
(lp1475
F6.5478301048278809
aF7.7456693649291992
aF0.20000000298023224
aa(lp1476
F746.72430419921875
aF0.0
aF0.0
aaF0.068201000000001955
aa(lp1477
(lp1478
F6.630584716796875
aF7.7951092720031738
aF0.20000000298023224
aa(lp1479
F754.986328125
aF0.0
aF0.0
aaF0.069467000000003054
aa(lp1480
(lp1481
F6.7051382064819336
aF7.8557043075561523
aF0.20000000298023224
aa(lp1482
F763.22039794921875
aF0.0
aF0.0
aaF0.069231999999999516
aa(lp1483
(lp1484
F6.7694621086120605
aF7.9253721237182617
aF0.20000000298023224
aa(lp1485
F771.34710693359375
aF0.0
aF0.0
aaF0.068328999999991424
aa(lp1486
(lp1487
F6.8230581283569336
aF8.0030374526977539
aF0.20000000298023224
aa(lp1488
F779.43438720703125
aF0.0
aF0.0
aaF0.067998000000002889
aa(lp1489
(lp1490
F6.8661046028137207
aF8.0896787643432617
aF0.20000000298023224
aa(lp1491
F787.726318359375
aF0.0
aF0.0
aaF0.069717999999994618
aa(lp1492
(lp1493
F6.8954496383666992
aF8.1786155700683594
aF0.20000000298023224
aa(lp1494
F795.7525634765625
aF0.0
aF0.0
aaF0.067485000000004902
aa(lp1495
(lp1496
F6.9121909141540527
aF8.2717151641845703
aF0.20000000298023224
aa(lp1497
F803.859619140625
aF0.0
aF0.0
aaF0.068163999999995895
aa(lp1498
(lp1499
F6.9156479835510254
aF8.3658742904663086
aF0.20000000298023224
aa(lp1500
F811.934814453125
aF0.0
aF0.0
aaF0.067896000000004619
aa(lp1501
(lp1502
F6.9050755500793457
aF8.4638595581054688
aF0.20000000298023224
aa(lp1503
F820.38189697265625
aF0.0
aF0.0
aaF0.071022999999996728
aa(lp1504
(lp1505
F6.8816142082214355
aF8.5551080703735352
aF0.20000000298023224
aa(lp1506
F828.45660400390625
aF0.0
aF0.0
aaF0.067892000000000507
aa(lp1507
(lp1508
F6.8457851409912109
aF8.6417207717895508
aF0.20000000298023224
aa(lp1509
F836.48968505859375
aF0.0
aF0.0
aaF0.0675420000000031
aa(lp1510
(lp1511
F6.7987165451049805
aF8.7217311859130859
aF0.20000000298023224
aa(lp1512
F844.44525146484375
aF0.0
aF0.0
aaF0.066890000000000782
aa(lp1513
(lp1514
F6.749842643737793
aF8.7855901718139648
aF0.20000000298023224
aa(lp1515
F850.41168212890625
aF0.0
aF0.0
aaF0.066867999999999483
aa(lp1516
(lp1517
F6.7047271728515625
aF8.8347759246826172
aF0.20000000298023224
aa(lp1518
F854.64508056640625
aF0.0
aF0.0
aaF0.065344999999993547
aa(lp1519
(lp1520
F6.6652474403381348
aF8.8727703094482422
aF0.20000000298023224
aa(lp1521
F857.55279541015625
aF0.0
aF0.0
aaF0.065194000000005303
aa(lp1522
(lp1523
F6.6332192420959473
aF8.9011316299438477
aF0.20000000298023224
aa(lp1524
F859.3958740234375
aF0.0
aF0.0
aaF0.064757000000000176
aa(lp1525
(lp1526
F6.6094341278076172
aF8.9211502075195312
aF0.20000000298023224
aa(lp1527
F860.43292236328125
aF0.0
aF0.0
aaF0.064608000000006882
aa(lp1528
(lp1529
F6.5943546295166016
aF8.9335079193115234
aF0.20000000298023224
aa(lp1530
F860.8970947265625
aF0.0
aF0.0
aaF0.064631999999988921
aa(lp1531
(lp1532
F6.5882139205932617
aF8.9384889602661133
aF0.20000000298023224
aa(lp1533
F861.0111083984375
aF0.0
aF0.0
aaF0.064384000000003994
aa(lp1534
(lp1535
F6.5882139205932617
aF8.9384889602661133
aF0.20000000298023224
aa(lp1536
F861.0111083984375
aF0.0
aF0.0
aaF0.064970000000002415
aa(lp1537
(lp1538
F6.5882139205932617
aF8.9384889602661133
aF0.20000000298023224
aa(lp1539
F861.0111083984375
aF0.0
aF0.0
aaF0.064669999999992456
aa(lp1540
(lp1541
F6.5793185234069824
aF8.9456758499145508
aF0.20000000298023224
aa(lp1542
F861.1170654296875
aF0.0
aF0.0
aaF0.064163000000007742
aa(lp1543
(lp1544
F6.561342716217041
aF8.9600610733032227
aF0.20000000298023224
aa(lp1545
F861.54559326171875
aF0.0
aF0.0
aaF0.064446000000003778
aa(lp1546
(lp1547
F6.5341196060180664
aF8.9813070297241211
aF0.20000000298023224
aa(lp1548
F862.51434326171875
aF0.0
aF0.0
aaF0.064408000000000243
aa(lp1549
(lp1550
F6.496737003326416
aF9.0090770721435547
aF0.20000000298023224
aa(lp1551
F864.27142333984375
aF0.0
aF0.0
aaF0.064982000000000539
aa(lp1552
(lp1553
F6.4483432769775391
aF9.0421285629272461
aF0.20000000298023224
aa(lp1554
F867.06439208984375
aF0.0
aF0.0
aaF0.065268999999986477
aa(lp1555
(lp1556
F6.3887424468994141
aF9.0778408050537109
aF0.20000000298023224
aa(lp1557
F871.0760498046875
aF0.0
aF0.0
aaF0.064516000000011786
aa(lp1558
(lp1559
F6.3165345191955566
aF9.1133480072021484
aF0.20000000298023224
aa(lp1560
F876.55474853515625
aF0.0
aF0.0
aaF0.064124999999989996
aa(lp1561
(lp1562
F6.2316575050354004
aF9.1440401077270508
aF0.20000000298023224
aa(lp1563
F883.68450927734375
aF0.0
aF0.0
aaF0.065026000000003137
aa(lp1564
(lp1565
F6.1551260948181152
aF9.1626052856445312
aF0.20000000298023224
aa(lp1566
F889.043701171875
aF0.0
aF0.0
aaF0.065232000000008838
aa(lp1567
(lp1568
F6.0887165069580078
aF9.173151969909668
aF0.20000000298023224
aa(lp1569
F892.90838623046875
aF0.0
aF0.0
aaF0.06558099999999456
aa(lp1570
(lp1571
F6.0336227416992188
aF9.1787328720092773
aF0.20000000298023224
aa(lp1572
F895.52325439453125
aF0.0
aF0.0
aaF0.065691000000001054
aa(lp1573
(lp1574
F5.9912571907043457
aF9.18145751953125
aF0.20000000298023224
aa(lp1575
F897.11663818359375
aF0.0
aF0.0
aaF0.063749000000001388
aa(lp1576
(lp1577
F5.9601597785949707
aF9.1827869415283203
aF0.20000000298023224
aa(lp1578
F897.99005126953125
aF0.0
aF0.0
aaF0.063621999999995182
aa(lp1579
(lp1580
F5.9403367042541504
aF9.1834173202514648
aF0.20000000298023224
aa(lp1581
F898.3626708984375
aF0.0
aF0.0
aaF0.0632619999999946
aa(lp1582
(lp1583
F5.9316143989562988
aF9.1836605072021484
aF0.20000000298023224
aa(lp1584
F898.44677734375
aF0.0
aF0.0
aaF0.06300600000000145
aa(lp1585
(lp1586
F5.9316143989562988
aF9.1836605072021484
aF0.20000000298023224
aa(lp1587
F898.44677734375
aF0.0
aF0.0
aaF0.063558000000000447
aa(lp1588
(lp1589
F5.9316143989562988
aF9.1836605072021484
aF0.20000000298023224
aa(lp1590
F898.44677734375
aF0.0
aF0.0
aaF0.063087000000010107
aa(lp1591
(lp1592
F5.9316143989562988
aF9.1836605072021484
aF0.20000000298023224
aa(lp1593
F898.44677734375
aF0.0
aF0.0
aaF0.063695999999993091
aa(lp1594
(lp1595
F5.9316143989562988
aF9.1836605072021484
aF0.20000000298023224
aa(lp1596
F898.44677734375
aF0.0
aF0.0
aaF0.063259000000002175
aa(lp1597
(lp1598
F5.9316143989562988
aF9.1836605072021484
aF0.20000000298023224
aa(lp1599
F898.44677734375
aF0.0
aF0.0
aaF0.062529999999995312
aa(lp1600
(lp1601
F5.9316143989562988
aF9.1836605072021484
aF0.20000000298023224
aa(lp1602
F898.44677734375
aF0.0
aF0.0
aaF0.062567999999998847
aa(lp1603
(lp1604
F5.9316143989562988
aF9.1836605072021484
aF0.20000000298023224
aa(lp1605
F898.44677734375
aF0.0
aF0.0
aaF0.062935000000010177
aa(lp1606
(lp1607
F5.9316143989562988
aF9.1836605072021484
aF0.20000000298023224
aa(lp1608
F898.44677734375
aF0.0
aF0.0
aaF0.062667999999987956
aa(lp1609
(lp1610
F5.9316143989562988
aF9.1836605072021484
aF0.20000000298023224
aa(lp1611
F898.44677734375
aF0.0
aF0.0
aaF0.062989000000001738
aa(lp1612
(lp1613
F5.9316143989562988
aF9.1836605072021484
aF0.20000000298023224
aa(lp1614
F898.44677734375
aF0.0
aF0.0
aaF0.062657000000001517
aa(lp1615
(lp1616
F5.9316143989562988
aF9.1836605072021484
aF0.20000000298023224
aa(lp1617
F898.44677734375
aF0.0
aF0.0
aaF0.063001999999997338
aa(lp1618
(lp1619
F5.9316143989562988
aF9.1836605072021484
aF0.20000000298023224
aa(lp1620
F898.44677734375
aF0.0
aF0.0
aaF0.064333000000004859
aa(lp1621
(lp1622
F5.9316143989562988
aF9.1836605072021484
aF0.20000000298023224
aa(lp1623
F898.44677734375
aF0.0
aF0.0
aaF0.063148999999995681
aa(lp1624
(lp1625
F5.9316143989562988
aF9.1836605072021484
aF0.20000000298023224
aa(lp1626
F898.44677734375
aF0.0
aF0.0
aaF0.063320000000004484
aa(lp1627
(lp1628
F5.9316143989562988
aF9.1836605072021484
aF0.20000000298023224
aa(lp1629
F898.44677734375
aF0.0
aF0.0
aaF0.063479999999998427
aa(lp1630
(lp1631
F5.9316143989562988
aF9.1836605072021484
aF0.20000000298023224
aa(lp1632
F898.44677734375
aF0.0
aF0.0
aaF0.063394999999999868
aa(lp1633
(lp1634
F5.9316143989562988
aF9.1836605072021484
aF0.20000000298023224
aa(lp1635
F898.44677734375
aF0.0
aF0.0
aaF0.063301000000009822
aa(lp1636
(lp1637
F5.9316143989562988
aF9.1836605072021484
aF0.20000000298023224
aa(lp1638
F898.44677734375
aF0.0
aF0.0
aaF0.06398499999998819
aa(lp1639
(lp1640
F5.9316143989562988
aF9.1836605072021484
aF0.20000000298023224
aa(lp1641
F898.44677734375
aF0.0
aF0.0
aaF0.064821000000009121
aa(lp1642
(lp1643
F5.9316143989562988
aF9.1836605072021484
aF0.20000000298023224
aa(lp1644
F898.44677734375
aF0.0
aF0.0
aaF0.064664999999990869
aa(lp1645
(lp1646
F5.9316143989562988
aF9.1836605072021484
aF0.20000000298023224
aa(lp1647
F898.44677734375
aF0.0
aF0.0
aaF0.063051000000001522
aa(lp1648
(lp1649
F5.9316143989562988
aF9.1836605072021484
aF0.20000000298023224
aa(lp1650
F898.44677734375
aF0.0
aF0.0
aaF0.062961000000001377
aa(lp1651
(lp1652
F5.9316143989562988
aF9.1836605072021484
aF0.20000000298023224
aa(lp1653
F898.44677734375
aF0.0
aF0.0
aaF0.062917999999996255
aa(lp1654
(lp1655
F5.9316143989562988
aF9.1836605072021484
aF0.20000000298023224
aa(lp1656
F898.44677734375
aF0.0
aF0.0
aaF0.062886000000005993
aa.