(lp0
(lp1
(lp2
F2.5
aF-30.0
aF0.30000001192092896
aa(lp3
F0.0
aF0.0
aF0.0
aaF1.0000000000000001e-05
aa(lp4
(lp5
F2.5
aF-30.0
aF0.30000001192092896
aa(lp6
F0.0
aF0.0
aF0.0
aaF0.20637799999999995
aa(lp7
(lp8
F2.5
aF-30.0
aF0.30000001192092896
aa(lp9
F0.0
aF0.0
aF0.0
aaF0.033220000000000027
aa(lp10
(lp11
F2.5
aF-30.0
aF0.30000001192092896
aa(lp12
F0.0
aF0.0
aF0.0
aaF0.033319000000000099
aa(lp13
(lp14
F2.5
aF-30.0
aF0.30000001192092896
aa(lp15
F0.0
aF0.0
aF0.0
aaF0.033337999999999868
aa(lp16
(lp17
F2.5
aF-30.0
aF0.30000001192092896
aa(lp18
F0.0
aF0.0
aF0.0
aaF0.033319000000000099
aa(lp19
(lp20
F2.5
aF-30.0
aF0.30000001192092896
aa(lp21
F0.0
aF0.0
aF0.0
aaF0.033398999999999957
aa(lp22
(lp23
F2.5
aF-30.0
aF0.30000001192092896
aa(lp24
F0.0
aF0.0
aF0.0
aaF0.033384999999999998
aa(lp25
(lp26
F2.5
aF-30.0
aF0.30000001192092896
aa(lp27
F0.0
aF0.0
aF0.0
aaF0.03329800000000005
aa(lp28
(lp29
F2.5
aF-30.0
aF0.30000001192092896
aa(lp30
F0.0
aF0.0
aF0.0
aaF0.033401000000000014
aa(lp31
(lp32
F2.5
aF-30.0
aF0.30000001192092896
aa(lp33
F0.0
aF0.0
aF0.0
aaF0.033255999999999952
aa(lp34
(lp35
F2.5
aF-30.0
aF0.30000001192092896
aa(lp36
F0.0
aF0.0
aF0.0
aaF0.033484999999999987
aa(lp37
(lp38
F2.5
aF-30.0
aF0.30000001192092896
aa(lp39
F0.0
aF0.0
aF0.0
aaF0.033285000000000009
aa(lp40
(lp41
F2.5
aF-30.0
aF0.30000001192092896
aa(lp42
F0.0
aF0.0
aF0.0
aaF0.033538999999999985
aa(lp43
(lp44
F2.5
aF-30.0
aF0.30000001192092896
aa(lp45
F0.0
aF0.0
aF0.0
aaF0.033136000000000054
aa(lp46
(lp47
F2.5
aF-30.0
aF0.30000001192092896
aa(lp48
F0.0
aF0.0
aF0.0
aaF0.033347000000000016
aa(lp49
(lp50
F2.5
aF-30.0
aF0.30000001192092896
aa(lp51
F0.0
aF0.0
aF0.0
aaF0.033406000000000047
aa(lp52
(lp53
F2.5
aF-30.0
aF0.30000001192092896
aa(lp54
F0.0
aF0.0
aF0.0
aaF0.033286999999999844
aa(lp55
(lp56
F2.5
aF-30.0
aF0.30000001192092896
aa(lp57
F0.0
aF0.0
aF0.0
aaF0.033387000000000056
aa(lp58
(lp59
F2.5
aF-30.0
aF0.30000001192092896
aa(lp60
F0.0
aF0.0
aF0.0
aaF0.033555999999999919
aa(lp61
(lp62
F2.5
aF-30.0
aF0.30000001192092896
aa(lp63
F0.0
aF0.0
aF0.0
aaF0.03314499999999998
aa(lp64
(lp65
F2.5
aF-30.0
aF0.30000001192092896
aa(lp66
F0.0
aF0.0
aF0.0
aaF0.033312000000000008
aa(lp67
(lp68
F2.5
aF-30.0
aF0.30000001192092896
aa(lp69
F0.0
aF0.0
aF0.0
aaF0.033374000000000015
aa(lp70
(lp71
F2.5
aF-30.0
aF0.30000001192092896
aa(lp72
F0.0
aF0.0
aF0.0
aaF0.033383000000000163
aa(lp73
(lp74
F2.5
aF-30.0
aF0.30000001192092896
aa(lp75
F0.0
aF0.0
aF0.0
aaF0.033317999999999959
aa(lp76
(lp77
F2.5
aF-30.0
aF0.30000001192092896
aa(lp78
F0.0
aF0.0
aF0.0
aaF0.033392999999999784
aa(lp79
(lp80
F2.5
aF-30.0
aF0.30000001192092896
aa(lp81
F0.0
aF0.0
aF0.0
aaF0.033335000000000115
aa(lp82
(lp83
F2.5
aF-30.0
aF0.30000001192092896
aa(lp84
F0.0
aF0.0
aF0.0
aaF0.03388100000000005
aa(lp85
(lp86
F2.5
aF-30.0
aF0.30000001192092896
aa(lp87
F0.0
aF0.0
aF0.0
aaF0.032993999999999968
aa(lp88
(lp89
F2.5
aF-30.0
aF0.30000001192092896
aa(lp90
F0.0
aF0.0
aF0.0
aaF0.033174999999999955
aa(lp91
(lp92
F2.5
aF-30.0
aF0.30000001192092896
aa(lp93
F0.0
aF0.0
aF0.0
aaF0.033310999999999868
aa(lp94
(lp95
F2.5
aF-30.0
aF0.30000001192092896
aa(lp96
F0.0
aF0.0
aF0.0
aaF0.033422000000000285
aa(lp97
(lp98
F2.5
aF-30.0
aF0.30000001192092896
aa(lp99
F0.0
aF0.0
aF0.0
aaF0.033376000000000072
aa(lp100
(lp101
F2.5
aF-30.0
aF0.30000001192092896
aa(lp102
F0.0
aF0.0
aF0.0
aaF0.033331999999999695
aa(lp103
(lp104
F2.5022220611572266
aF-30.0
aF0.30000001192092896
aa(lp105
F0.0
aF0.0
aF0.0
aaF0.033301999999999943
aa(lp106
(lp107
F2.5066602230072021
aF-30.0
aF0.30000001192092896
aa(lp108
F0.0046751070767641068
aF0.0
aF0.0
aaF0.033357000000000081
aa(lp109
(lp110
F2.5133309364318848
aF-29.999998092651367
aF0.30000001192092896
aa(lp111
F0.018756480887532234
aF0.0
aF0.0
aaF0.033379000000000048
aa(lp112
(lp113
F2.5222344398498535
aF-29.999994277954102
aF0.30000001192092896
aa(lp114
F0.047014586627483368
aF0.0
aF0.0
aaF0.03327200000000019
aa(lp115
(lp116
F2.5333235263824463
aF-29.999979019165039
aF0.30000001192092896
aa(lp117
F0.094036899507045746
aF0.0
aF0.0
aaF0.033441999999999972
aa(lp118
(lp119
F2.546705961227417
aF-29.999948501586914
aF0.30000001192092896
aa(lp120
F0.16526015102863312
aF0.0
aF0.0
aaF0.033351999999999826
aa(lp121
(lp122
F2.5622768402099609
aF-29.99989128112793
aF0.30000001192092896
aa(lp123
F0.26512008905410767
aF0.0
aF0.0
aaF0.033317999999999959
aa(lp124
(lp125
F2.5800518989562988
aF-29.999788284301758
aF0.30000001192092896
aa(lp126
F0.39875364303588867
aF0.0
aF0.0
aaF0.033381000000000327
aa(lp127
(lp128
F2.6000888347625732
aF-29.999618530273438
aF0.30000001192092896
aa(lp129
F0.57192689180374146
aF0.0
aF0.0
aaF0.033312999999999704
aa(lp130
(lp131
F2.6223034858703613
aF-29.999353408813477
aF0.30000001192092896
aa(lp132
F0.78931987285614014
aF0.0
aF0.0
aaF0.033638000000000279
aa(lp133
(lp134
F2.6469964981079102
aF-29.998956680297852
aF0.30000001192092896
aa(lp135
F1.0600752830505371
aF0.0
aF0.0
aaF0.033120999999999956
aa(lp136
(lp137
F2.6735007762908936
aF-29.998390197753906
aF0.30000001192092896
aa(lp138
F1.3821983337402344
aF0.0
aF0.0
aaF0.033323999999999909
aa(lp139
(lp140
F2.7023837566375732
aF-29.997596740722656
aF0.30000001192092896
aa(lp141
F1.7686904668807983
aF0.0
aF0.0
aaF0.033329000000000164
aa(lp142
(lp143
F2.7334847450256348
aF-29.996511459350586
aF0.30000001192092896
aa(lp144
F2.2241907119750977
aF0.0
aF0.0
aaF0.033410999999999635
aa(lp145
(lp146
F2.7668828964233398
aF-29.995071411132812
aF0.30000001192092896
aa(lp147
F2.7170770168304443
aF0.0
aF0.0
aaF0.033340000000000369
aa(lp148
(lp149
F2.8024158477783203
aF-29.993221282958984
aF0.30000001192092896
aa(lp150
F3.2416939735412598
aF0.0
aF0.0
aaF0.033617999999999704
aa(lp151
(lp152
F2.8404817581176758
aF-29.990879058837891
aF0.30000001192092896
aa(lp153
F3.8040120601654053
aF0.0
aF0.0
aaF0.033152999999999988
aa(lp154
(lp155
F2.8801887035369873
aF-29.988033294677734
aF0.30000001192092896
aa(lp156
F4.3909640312194824
aF0.0
aF0.0
aaF0.033295000000000297
aa(lp157
(lp158
F2.9222431182861328
aF-29.984575271606445
aF0.30000001192092896
aa(lp159
F5.0131192207336426
aF0.0
aF0.0
aaF0.033363999999999727
aa(lp160
(lp161
F2.966559886932373
aF-29.980432510375977
aF0.30000001192092896
aa(lp162
F5.6693892478942871
aF0.0
aF0.0
aaF0.033361000000000196
aa(lp163
(lp164
F3.0130345821380615
aF-29.975536346435547
aF0.30000001192092896
aa(lp165
F6.3584194183349609
aF0.0
aF0.0
aaF0.033398000000000039
aa(lp166
(lp167
F3.0617125034332275
aF-29.96980094909668
aF0.30000001192092896
aa(lp168
F7.0811061859130859
aF0.0
aF0.0
aaF0.033529999999999616
aa(lp169
(lp170
F3.1127336025238037
aF-29.963119506835938
aF0.30000001192092896
aa(lp171
F7.8398017883300781
aF0.0
aF0.0
aaF0.033368999999999982
aa(lp172
(lp173
F3.1656193733215332
aF-29.955465316772461
aF0.30000001192092896
aa(lp174
F8.6276893615722656
aF0.0
aF0.0
aaF0.033393999999999924
aa(lp175
(lp176
F3.2206346988677979
aF-29.946714401245117
aF0.30000001192092896
aa(lp177
F9.4490518569946289
aF0.0
aF0.0
aaF0.033533999999999953
aa(lp178
(lp179
F3.2779614925384521
aF-29.936733245849609
aF0.30000001192092896
aa(lp180
F10.307018280029297
aF0.0
aF0.0
aaF0.033236000000000043
aa(lp181
(lp182
F3.3367924690246582
aF-29.925563812255859
aF0.30000001192092896
aa(lp183
F11.189934730529785
aF0.0
aF0.0
aaF0.03325099999999992
aa(lp184
(lp185
F3.3976330757141113
aF-29.913022994995117
aF0.30000001192092896
aa(lp186
F12.105852127075195
aF0.0
aF0.0
aaF0.03341700000000003
aa(lp187
(lp188
F3.4607431888580322
aF-29.898935317993164
aF0.30000001192092896
aa(lp189
F13.059271812438965
aF0.0
aF0.0
aaF0.033376000000000072
aa(lp190
(lp191
F3.5256948471069336
aF-29.883279800415039
aF0.30000001192092896
aa(lp192
F14.044371604919434
aF0.0
aF0.0
aaF0.03333800000000009
aa(lp193
(lp194
F3.5924408435821533
aF-29.86595344543457
aF0.30000001192092896
aa(lp195
F15.061122894287109
aF0.0
aF0.0
aaF0.033457999999999988
aa(lp196
(lp197
F3.6612584590911865
aF-29.84675407409668
aF0.30000001192092896
aa(lp198
F16.114543914794922
aF0.0
aF0.0
aaF0.033300999999999803
aa(lp199
(lp200
F3.7315101623535156
aF-29.825738906860352
aF0.30000001192092896
aa(lp201
F17.195724487304688
aF0.0
aF0.0
aaF0.033336000000000254
aa(lp202
(lp203
F3.8035361766815186
aF-29.802677154541016
aF0.30000001192092896
aa(lp204
F18.310811996459961
aF0.0
aF0.0
aaF0.033452999999999733
aa(lp205
(lp206
F3.8774604797363281
aF-29.777387619018555
aF0.30000001192092896
aa(lp207
F19.462812423706055
aF0.0
aF0.0
aaF0.033769000000000382
aa(lp208
(lp209
F3.9536867141723633
aF-29.749551773071289
aF0.30000001192092896
aa(lp210
F20.659322738647461
aF0.0
aF0.0
aaF0.0331039999999998
aa(lp211
(lp212
F4.0298657417297363
aF-29.719907760620117
aF0.30000001192092896
aa(lp213
F21.864585876464844
aF0.0
aF0.0
aaF0.033177000000000234
aa(lp214
(lp215
F4.1075954437255859
aF-29.687736511230469
aF0.30000001192092896
aa(lp216
F23.104965209960938
aF0.0
aF0.0
aaF0.032916999999999863
aa(lp217
(lp218
F4.1859841346740723
aF-29.653266906738281
aF0.30000001192092896
aa(lp219
F24.367574691772461
aF0.0
aF0.0
aaF0.033694000000000113
aa(lp220
(lp221
F4.267463207244873
aF-29.615219116210938
aF0.30000001192092896
aa(lp222
F25.693466186523438
aF0.0
aF0.0
aaF0.033244999999999969
aa(lp223
(lp224
F4.3489413261413574
aF-29.574836730957031
aF0.30000001192092896
aa(lp225
F27.034280776977539
aF0.0
aF0.0
aaF0.033072999999999908
aa(lp226
(lp227
F4.4309625625610352
aF-29.531744003295898
aF0.30000001192092896
aa(lp228
F28.400413513183594
aF0.0
aF0.0
aaF0.033367999999999842
aa(lp229
(lp230
F4.5145835876464844
aF-29.485189437866211
aF0.30000001192092896
aa(lp231
F29.811565399169922
aF0.0
aF0.0
aaF0.033387000000000278
aa(lp232
(lp233
F4.5989847183227539
aF-29.435405731201172
aF0.30000001192092896
aa(lp234
F31.256391525268555
aF0.0
aF0.0
aaF0.03340199999999971
aa(lp235
(lp236
F4.684018611907959
aF-29.382278442382812
aF0.30000001192092896
aa(lp237
F32.734764099121094
aF0.0
aF0.0
aaF0.033328000000000024
aa(lp238
(lp239
F4.7693066596984863
aF-29.32585334777832
aF0.30000001192092896
aa(lp240
F34.242618560791016
aF0.0
aF0.0
aaF0.033625999999999934
aa(lp241
(lp242
F4.8556571006774902
aF-29.265344619750977
aF0.30000001192092896
aa(lp243
F35.797298431396484
aF0.0
aF0.0
aaF0.033148000000000177
aa(lp244
(lp245
F4.9408893585205078
aF-29.202091217041016
aF0.30000001192092896
aa(lp246
F37.362277984619141
aF0.0
aF0.0
aaF0.033277000000000001
aa(lp247
(lp248
F5.0264062881469727
aF-29.134883880615234
aF0.30000001192092896
aa(lp249
F38.96600341796875
aF0.0
aF0.0
aaF0.033430999999999766
aa(lp250
(lp251
F5.1120882034301758
aF-29.063526153564453
aF0.30000001192092896
aa(lp252
F40.610107421875
aF0.0
aF0.0
aaF0.033365000000000311
aa(lp253
(lp254
F5.1971721649169922
aF-28.98838996887207
aF0.30000001192092896
aa(lp255
F42.283794403076172
aF0.0
aF0.0
aaF0.033309999999999729
aa(lp256
(lp257
F5.2814879417419434
aF-28.909391403198242
aF0.30000001192092896
aa(lp258
F43.987438201904297
aF0.0
aF0.0
aaF0.033392000000000532
aa(lp259
(lp260
F5.36517333984375
aF-28.826120376586914
aF0.30000001192092896
aa(lp261
F45.728160858154297
aF0.0
aF0.0
aaF0.033380999999999439
aa(lp262
(lp263
F5.4477705955505371
aF-28.738731384277344
aF0.30000001192092896
aa(lp264
F47.501163482666016
aF0.0
aF0.0
aaF0.033388000000000417
aa(lp265
(lp266
F5.5290951728820801
aF-28.647119522094727
aF0.30000001192092896
aa(lp267
F49.307415008544922
aF0.0
aF0.0
aaF0.033548999999999829
aa(lp268
(lp269
F5.6092748641967773
aF-28.550777435302734
aF0.30000001192092896
aa(lp270
F51.155563354492188
aF0.0
aF0.0
aaF0.033190999999999526
aa(lp271
(lp272
F5.686826229095459
aF-28.451208114624023
aF0.30000001192092896
aa(lp273
F53.0164794921875
aF0.0
aF0.0
aaF0.033311000000000313
aa(lp274
(lp275
F5.7626423835754395
aF-28.346982955932617
aF0.30000001192092896
aa(lp276
F54.916843414306641
aF0.0
aF0.0
aaF0.033470000000000333
aa(lp277
(lp278
F5.8365225791931152
aF-28.237911224365234
aF0.30000001192092896
aa(lp279
F56.859310150146484
aF0.0
aF0.0
aaF0.033303000000000083
aa(lp280
(lp281
F5.9074716567993164
aF-28.125062942504883
aF0.30000001192092896
aa(lp282
F58.824790954589844
aF0.0
aF0.0
aaF0.033405000000000129
aa(lp283
(lp284
F5.9757957458496094
aF-28.007543563842773
aF0.30000001192092896
aa(lp285
F60.829196929931641
aF0.0
aF0.0
aaF0.033531999999999229
aa(lp286
(lp287
F6.0412297248840332
aF-27.885244369506836
aF0.30000001192092896
aa(lp288
F62.874382019042969
aF0.0
aF0.0
aaF0.033352000000000714
aa(lp289
(lp290
F6.1028847694396973
aF-27.759346008300781
aF0.30000001192092896
aa(lp291
F64.941390991210938
aF0.0
aF0.0
aaF0.033367999999999398
aa(lp292
(lp293
F6.1608538627624512
aF-27.629196166992188
aF0.30000001192092896
aa(lp294
F67.042221069335938
aF0.0
aF0.0
aaF0.033305000000000362
aa(lp295
(lp296
F6.2147068977355957
aF-27.495185852050781
aF0.30000001192092896
aa(lp297
F69.171798706054688
aF0.0
aF0.0
aaF0.033317000000000263
aa(lp298
(lp299
F6.2642703056335449
aF-27.357114791870117
aF0.30000001192092896
aa(lp300
F71.334869384765625
aF0.0
aF0.0
aaF0.033227999999999369
aa(lp301
(lp302
F6.3091030120849609
aF-27.21552848815918
aF0.30000001192092896
aa(lp303
F73.524726867675781
aF0.0
aF0.0
aaF0.033408000000000548
aa(lp304
(lp305
F6.349240779876709
aF-27.069391250610352
aF0.30000001192092896
aa(lp306
F75.759353637695312
aF0.0
aF0.0
aaF0.033290999999999293
aa(lp307
(lp308
F6.384000301361084
aF-26.920148849487305
aF0.30000001192092896
aa(lp309
F78.018844604492188
aF0.0
aF0.0
aaF0.033252999999999755
aa(lp310
(lp311
F6.4131922721862793
aF-26.767646789550781
aF0.30000001192092896
aa(lp312
F80.308357238769531
aF0.0
aF0.0
aaF0.033606000000000691
aa(lp313
(lp314
F6.436769962310791
aF-26.610223770141602
aF0.30000001192092896
aa(lp315
F82.655479431152344
aF0.0
aF0.0
aaF0.033170000000000144
aa(lp316
(lp317
F6.454169750213623
aF-26.451862335205078
aF0.30000001192092896
aa(lp318
F84.804176330566406
aF0.0
aF0.0
aaF0.033319999999999794
aa(lp319
(lp320
F6.4660568237304688
aF-26.290040969848633
aF0.30000001192092896
aa(lp321
F86.793235778808594
aF0.0
aF0.0
aaF0.033155999999999963
aa(lp322
(lp323
F6.4726276397705078
aF-26.126514434814453
aF0.30000001192092896
aa(lp324
F88.604522705078125
aF0.0
aF0.0
aaF0.033117999999999981
aa(lp325
(lp326
F6.4742903709411621
aF-25.960857391357422
aF0.30000001192092896
aa(lp327
F90.245429992675781
aF0.0
aF0.0
aaF0.033241000000000298
aa(lp328
(lp329
F6.471397876739502
aF-25.792390823364258
aF0.30000001192092896
aa(lp330
F91.721763610839844
aF0.0
aF0.0
aaF0.033640000000000114
aa(lp331
(lp332
F6.4642210006713867
aF-25.619760513305664
aF0.30000001192092896
aa(lp333
F93.039512634277344
aF0.0
aF0.0
aaF0.033168999999999116
aa(lp334
(lp335
F6.4533782005310059
aF-25.447540283203125
aF0.30000001192092896
aa(lp336
F94.165519714355469
aF0.0
aF0.0
aaF0.033205999999999847
aa(lp337
(lp338
F6.4392213821411133
aF-25.273155212402344
aF0.30000001192092896
aa(lp339
F95.11688232421875
aF0.0
aF0.0
aaF0.033487000000000933
aa(lp340
(lp341
F6.4220771789550781
aF-25.095296859741211
aF0.30000001192092896
aa(lp342
F95.894737243652344
aF0.0
aF0.0
aaF0.033348000000000155
aa(lp343
(lp344
F6.4026494026184082
aF-24.916179656982422
aF0.30000001192092896
aa(lp345
F96.486274719238281
aF0.0
aF0.0
aaF0.033421999999999841
aa(lp346
(lp347
F6.3813567161560059
aF-24.734624862670898
aF0.30000001192092896
aa(lp348
F96.891792297363281
aF0.0
aF0.0
aaF0.033381000000000327
aa(lp349
(lp350
F6.3588376045227051
aF-24.55119514465332
aF0.30000001192092896
aa(lp351
F97.106124877929688
aF0.0
aF0.0
aaF0.033311999999998676
aa(lp352
(lp353
F6.335716724395752
aF-24.365991592407227
aF0.30000001192092896
aa(lp354
F97.125885009765625
aF0.0
aF0.0
aaF0.033374000000000237
aa(lp355
(lp356
F6.3125386238098145
aF-24.178197860717773
aF0.30000001192092896
aa(lp357
F96.946189880371094
aF0.0
aF0.0
aaF0.03356899999999996
aa(lp358
(lp359
F6.2898960113525391
aF-23.986957550048828
aF0.30000001192092896
aa(lp360
F96.558425903320312
aF0.0
aF0.0
aaF0.033243999999999829
aa(lp361
(lp362
F6.268852710723877
aF-23.795186996459961
aF0.30000001192092896
aa(lp363
F95.965835571289062
aF0.0
aF0.0
aaF0.033198000000000505
aa(lp364
(lp365
F6.2499632835388184
aF-23.601245880126953
aF0.30000001192092896
aa(lp366
F95.160064697265625
aF0.0
aF0.0
aaF0.033402999999999849
aa(lp367
(lp368
F6.2331767082214355
aF-23.403663635253906
aF0.30000001192092896
aa(lp369
F94.552268981933594
aF0.0
aF0.0
aaF0.033231000000000677
aa(lp370
(lp371
F6.2180390357971191
aF-23.204755783081055
aF0.30000001192092896
aa(lp372
F94.151817321777344
aF0.0
aF0.0
aaF0.033326999999999884
aa(lp373
(lp374
F6.203732967376709
aF-23.002983093261719
aF0.30000001192092896
aa(lp375
F93.959396362304688
aF0.0
aF0.0
aaF0.033396999999999011
aa(lp376
(lp377
F6.189582347869873
aF-22.79853630065918
aF0.30000001192092896
aa(lp378
F93.959396362304688
aF0.0
aF0.0
aaF0.03327200000000019
aa(lp379
(lp380
F6.1753315925598145
aF-22.592645645141602
aF0.30000001192092896
aa(lp381
F93.959396362304688
aF0.0
aF0.0
aaF0.033385000000000886
aa(lp382
(lp383
F6.1608786582946777
aF-22.383832931518555
aF0.30000001192092896
aa(lp384
F93.959396362304688
aF0.0
aF0.0
aaF0.033303000000000083
aa(lp385
(lp386
F6.1463079452514648
aF-22.173318862915039
aF0.30000001192092896
aa(lp387
F93.959396362304688
aF0.0
aF0.0
aaF0.033395000000000508
aa(lp388
(lp389
F6.1315431594848633
aF-21.959999084472656
aF0.30000001192092896
aa(lp390
F93.959396362304688
aF0.0
aF0.0
aaF0.033277000000000001
aa(lp391
(lp392
F6.1166772842407227
aF-21.745223999023438
aF0.30000001192092896
aa(lp393
F93.959396362304688
aF0.0
aF0.0
aaF0.033404999999998353
aa(lp394
(lp395
F6.1016006469726562
aF-21.527395248413086
aF0.30000001192092896
aa(lp396
F93.959396362304688
aF0.0
aF0.0
aaF0.033287000000001399
aa(lp397
(lp398
F6.0864238739013672
aF-21.308124542236328
aF0.30000001192092896
aa(lp399
F93.959396362304688
aF0.0
aF0.0
aaF0.033401999999998822
aa(lp400
(lp401
F6.0710406303405762
aF-21.085872650146484
aF0.30000001192092896
aa(lp402
F93.959396362304688
aF0.0
aF0.0
aaF0.033378000000000796
aa(lp403
(lp404
F6.0555148124694824
aF-20.861555099487305
aF0.30000001192092896
aa(lp405
F93.959396362304688
aF0.0
aF0.0
aaF0.033305000000000362
aa(lp406
(lp407
F6.0398693084716797
aF-20.635517120361328
aF0.30000001192092896
aa(lp408
F93.959396362304688
aF0.0
aF0.0
aaF0.033379000000000048
aa(lp409
(lp410
F6.023552417755127
aF-20.406787872314453
aF0.30000001192092896
aa(lp411
F94.201515197753906
aF0.0
aF0.0
aaF0.033360000000000056
aa(lp412
(lp413
F6.0056138038635254
aF-20.176076889038086
aF0.30000001192092896
aa(lp414
F94.690574645996094
aF0.0
aF0.0
aaF0.033323999999998577
aa(lp415
(lp416
F5.9850258827209473
aF-19.943611145019531
aF0.30000001192092896
aa(lp417
F95.43145751953125
aF0.0
aF0.0
aaF0.03342400000000012
aa(lp418
(lp419
F5.9605989456176758
aF-19.708566665649414
aF0.30000001192092896
aa(lp420
F96.43487548828125
aF0.0
aF0.0
aaF0.033438000000000301
aa(lp421
(lp422
F5.9312238693237305
aF-19.471738815307617
aF0.30000001192092896
aa(lp423
F97.706336975097656
aF0.0
aF0.0
aaF0.033295999999999992
aa(lp424
(lp425
F5.8958725929260254
aF-19.234514236450195
aF0.30000001192092896
aa(lp426
F99.245468139648438
aF0.0
aF0.0
aaF0.03339399999999948
aa(lp427
(lp428
F5.8530516624450684
aF-18.995542526245117
aF0.30000001192092896
aa(lp429
F101.07228088378906
aF0.0
aF0.0
aaF0.033470000000001221
aa(lp430
(lp431
F5.8014311790466309
aF-18.755462646484375
aF0.30000001192092896
aa(lp432
F103.19704437255859
aF0.0
aF0.0
aaF0.033289999999999154
aa(lp433
(lp434
F5.7412838935852051
aF-18.516448974609375
aF0.30000001192092896
aa(lp435
F105.0531005859375
aF0.0
aF0.0
aaF0.033414000000000499
aa(lp436
(lp437
F5.6730880737304688
aF-18.276327133178711
aF0.30000001192092896
aa(lp438
F106.65627288818359
aF0.0
aF0.0
aaF0.033355000000000246
aa(lp439
(lp440
F5.5982155799865723
aF-18.036327362060547
aF0.30000001192092896
aa(lp441
F107.99656677246094
aF0.0
aF0.0
aaF0.033386999999999389
aa(lp442
(lp443
F5.5175065994262695
aF-17.795619964599609
aF0.30000001192092896
aa(lp444
F109.07582855224609
aF0.0
aF0.0
aaF0.033307000000000642
aa(lp445
(lp446
F5.4322957992553711
aF-17.554758071899414
aF0.30000001192092896
aa(lp447
F109.88911437988281
aF0.0
aF0.0
aaF0.033466999999999913
aa(lp448
(lp449
F5.3430333137512207
aF-17.311668395996094
aF0.30000001192092896
aa(lp450
F110.43744659423828
aF0.0
aF0.0
aaF0.033357999999999777
aa(lp451
(lp452
F5.2515387535095215
aF-17.067934036254883
aF0.30000001192092896
aa(lp453
F110.71338653564453
aF0.0
aF0.0
aaF0.03328800000000065
aa(lp454
(lp455
F5.1588625907897949
aF-16.822858810424805
aF0.30000001192092896
aa(lp456
F110.71520233154297
aF0.0
aF0.0
aaF0.033335999999998478
aa(lp457
(lp458
F5.0658621788024902
aF-16.575128555297852
aF0.30000001192092896
aa(lp459
F110.43800354003906
aF0.0
aF0.0
aaF0.033345000000000624
aa(lp460
(lp461
F4.9738874435424805
aF-16.324567794799805
aF0.30000001192092896
aa(lp462
F109.87625885009766
aF0.0
aF0.0
aaF0.033412000000000219
aa(lp463
(lp464
F4.88409423828125
aF-16.070281982421875
aF0.30000001192092896
aa(lp465
F109.02176666259766
aF0.0
aF0.0
aaF0.033284000000000091
aa(lp466
(lp467
F4.7983832359313965
aF-15.813345909118652
aF0.30000001192092896
aa(lp468
F107.87452697753906
aF0.0
aF0.0
aaF0.033362999999999587
aa(lp469
(lp470
F4.7176828384399414
aF-15.551792144775391
aF0.30000001192092896
aa(lp471
F106.41976165771484
aF0.0
aF0.0
aaF0.033345000000000624
aa(lp472
(lp473
F4.6438112258911133
aF-15.286075592041016
aF0.30000001192092896
aa(lp474
F104.65314483642578
aF0.0
aF0.0
aaF0.033312999999999704
aa(lp475
(lp476
F4.5784869194030762
aF-15.016278266906738
aF0.30000001192092896
aa(lp477
F102.56836700439453
aF0.0
aF0.0
aaF0.03340999999999994
aa(lp478
(lp479
F4.5236201286315918
aF-14.743342399597168
aF0.30000001192092896
aa(lp480
F100.16420745849609
aF0.0
aF0.0
aaF0.033245000000000857
aa(lp481
(lp482
F4.4811925888061523
aF-14.469594955444336
aF0.30000001192092896
aa(lp483
F97.455978393554688
aF0.0
aF0.0
aaF0.033342999999998568
aa(lp484
(lp485
F4.4524621963500977
aF-14.193258285522461
aF0.30000001192092896
aa(lp486
F94.415359497070312
aF0.0
aF0.0
aaF0.050078000000000955
aa(lp487
(lp488
F4.4396848678588867
aF-13.776287078857422
aF0.30000001192092896
aa(lp489
F89.094985961914062
aF0.0
aF0.0
aaF0.051009000000000526
aa(lp490
(lp491
F4.4694838523864746
aF-13.352468490600586
aF0.30000001192092896
aa(lp492
F82.861175537109375
aF0.0
aF0.0
aaF0.032383999999998636
aa(lp493
(lp494
F4.5122885704040527
aF-13.08607292175293
aF0.30000001192092896
aa(lp495
F78.8822021484375
aF0.0
aF0.0
aaF0.033475000000001032
aa(lp496
(lp497
F4.5758538246154785
aF-12.814515113830566
aF0.30000001192092896
aa(lp498
F74.769180297851562
aF0.0
aF0.0
aaF0.033580999999999861
aa(lp499
(lp500
F4.659024715423584
aF-12.547381401062012
aF0.30000001192092896
aa(lp501
F70.643135070800781
aF0.0
aF0.0
aaF0.033450000000000202
aa(lp502
(lp503
F4.7607660293579102
aF-12.28792667388916
aF0.30000001192092896
aa(lp504
F66.533180236816406
aF0.0
aF0.0
aaF0.033341999999999317
aa(lp505
(lp506
F4.8804244995117188
aF-12.037228584289551
aF0.30000001192092896
aa(lp507
F62.436496734619141
aF0.0
aF0.0
aaF0.033457000000000292
aa(lp508
(lp509
F5.0181899070739746
aF-11.794903755187988
aF0.30000001192092896
aa(lp510
F58.325687408447266
aF0.0
aF0.0
aaF0.033237999999998991
aa(lp511
(lp512
F5.171905517578125
aF-11.564558029174805
aF0.30000001192092896
aa(lp513
F54.241783142089844
aF0.0
aF0.0
aaF0.033277000000000001
aa(lp514
(lp515
F5.3411798477172852
aF-11.344970703125
aF0.30000001192092896
aa(lp516
F50.503017425537109
aF0.0
aF0.0
aaF0.033390000000000697
aa(lp517
(lp518
F5.5244383811950684
aF-11.135646820068359
aF0.30000001192092896
aa(lp519
F47.093997955322266
aF0.0
aF0.0
aaF0.033367999999999398
aa(lp520
(lp521
F5.7191162109375
aF-10.93714427947998
aF0.30000001192092896
aa(lp522
F44.020473480224609
aF0.0
aF0.0
aaF0.033412000000000219
aa(lp523
(lp524
F5.9239029884338379
aF-10.748537063598633
aF0.30000001192092896
aa(lp525
F41.269309997558594
aF0.0
aF0.0
aaF0.033260000000000289
aa(lp526
(lp527
F6.1360273361206055
aF-10.570175170898438
aF0.30000001192092896
aa(lp528
F38.847446441650391
aF0.0
aF0.0
aaF0.033364999999999867
aa(lp529
(lp530
F6.355743408203125
aF-10.399812698364258
aF0.30000001192092896
aa(lp531
F36.730903625488281
aF0.0
aF0.0
aaF0.033305000000000362
aa(lp532
(lp533
F6.5807585716247559
aF-10.237359046936035
aF0.30000001192092896
aa(lp534
F34.925041198730469
aF0.0
aF0.0
aaF0.033880999999999162
aa(lp535
(lp536
F6.8143730163574219
aF-10.078814506530762
aF0.30000001192092896
aa(lp537
F33.401168823242188
aF0.0
aF0.0
aaF0.032681000000000182
aa(lp538
(lp539
F7.0432639122009277
aF-9.9312467575073242
aF0.30000001192092896
aa(lp540
F32.219398498535156
aF0.0
aF0.0
aaF0.033368000000001174
aa(lp541
(lp542
F7.2796778678894043
aF-9.7848644256591797
aF0.30000001192092896
aa(lp543
F31.310443878173828
aF0.0
aF0.0
aaF0.033403999999999101
aa(lp544
(lp545
F7.5182747840881348
aF-9.6414804458618164
aF0.30000001192092896
aa(lp546
F30.69676399230957
aF0.0
aF0.0
aaF0.033197000000001253
aa(lp547
(lp548
F7.7565450668334961
aF-9.5009183883666992
aF0.30000001192092896
aa(lp549
F30.378118515014648
aF0.0
aF0.0
aaF0.033376999999999768
aa(lp550
(lp551
F7.9965324401855469
aF-9.3603172302246094
aF0.30000001192092896
aa(lp552
F30.351434707641602
aF0.0
aF0.0
aaF0.033285999999998594
aa(lp553
(lp554
F8.2355728149414062
aF-9.2196006774902344
aF0.30000001192092896
aa(lp555
F30.616853713989258
aF0.0
aF0.0
aaF0.033322000000000074
aa(lp556
(lp557
F8.473851203918457
aF-9.0770149230957031
aF0.30000001192092896
aa(lp558
F31.175811767578125
aF0.0
aF0.0
aaF0.033368000000001174
aa(lp559
(lp560
F8.7106771469116211
aF-8.9312992095947266
aF0.30000001192092896
aa(lp561
F32.030857086181641
aF0.0
aF0.0
aaF0.033408999999998912
aa(lp562
(lp563
F8.9451990127563477
aF-8.7812709808349609
aF0.30000001192092896
aa(lp564
F33.184921264648438
aF0.0
aF0.0
aaF0.033310000000000173
aa(lp565
(lp566
F9.1755638122558594
aF-8.6264152526855469
aF0.30000001192092896
aa(lp567
F34.634376525878906
aF0.0
aF0.0
aaF0.03343500000000077
aa(lp568
(lp569
F9.402348518371582
aF-8.4645681381225586
aF0.30000001192092896
aa(lp570
F36.393669128417969
aF0.0
aF0.0
aaF0.033343999999999596
aa(lp571
(lp572
F9.6230058670043945
aF-8.2957143783569336
aF0.30000001192092896
aa(lp573
F38.454975128173828
aF0.0
aF0.0
aaF0.033376999999999768
aa(lp574
(lp575
F9.8371706008911133
aF-8.1182727813720703
aF0.30000001192092896
aa(lp576
F40.830589294433594
aF0.0
aF0.0
aaF0.033388999999999669
aa(lp577
(lp578
F10.043346405029297
aF-7.9314684867858887
aF0.30000001192092896
aa(lp579
F43.525234222412109
aF0.0
aF0.0
aaF0.033692000000000277
aa(lp580
(lp581
F10.241681098937988
aF-7.7327861785888672
aF0.30000001192092896
aa(lp582
F46.575046539306641
aF0.0
aF0.0
aaF0.033024000000001053
aa(lp583
(lp584
F10.424969673156738
aF-7.5275568962097168
aF0.30000001192092896
aa(lp585
F49.889476776123047
aF0.0
aF0.0
aaF0.033286999999999622
aa(lp586
(lp587
F10.596750259399414
aF-7.3098158836364746
aF0.30000001192092896
aa(lp588
F53.569049835205078
aF0.0
aF0.0
aaF0.033336000000000254
aa(lp589
(lp590
F10.753720283508301
aF-7.0806846618652344
aF0.30000001192092896
aa(lp591
F57.603412628173828
aF0.0
aF0.0
aaF0.033433999999999742
aa(lp592
(lp593
F10.895310401916504
aF-6.8407831192016602
aF0.30000001192092896
aa(lp594
F61.2982177734375
aF0.0
aF0.0
aaF0.0332309999999989
aa(lp595
(lp596
F11.021162033081055
aF-6.594151496887207
aF0.30000001192092896
aa(lp597
F64.633003234863281
aF0.0
aF0.0
aaF0.033913000000000082
aa(lp598
(lp599
F11.135359764099121
aF-6.3356804847717285
aF0.30000001192092896
aa(lp600
F67.693519592285156
aF0.0
aF0.0
aaF0.032719000000000165
aa(lp601
(lp602
F11.233000755310059
aF-6.0811305046081543
aF0.30000001192092896
aa(lp603
F70.334495544433594
aF0.0
aF0.0
aaF0.033411000000000968
aa(lp604
(lp605
F11.321231842041016
aF-5.8170762062072754
aF0.30000001192092896
aa(lp606
F72.712715148925781
aF0.0
aF0.0
aaF0.03326700000000038
aa(lp607
(lp608
F11.398841857910156
aF-5.5509519577026367
aF0.30000001192092896
aa(lp609
F74.770462036132812
aF0.0
aF0.0
aaF0.033360999999999308
aa(lp610
(lp611
F11.467748641967773
aF-5.2816295623779297
aF0.30000001192092896
aa(lp612
F76.526893615722656
aF0.0
aF0.0
aaF0.033459000000000572
aa(lp613
(lp614
F11.529257774353027
aF-5.009681224822998
aF0.30000001192092896
aa(lp615
F77.983642578125
aF0.0
aF0.0
aaF0.033274999999999721
aa(lp616
(lp617
F11.584259986877441
aF-4.7379045486450195
aF0.30000001192092896
aa(lp618
F79.134185791015625
aF0.0
aF0.0
aaF0.033519999999999328
aa(lp619
(lp620
F11.634859085083008
aF-4.4631948471069336
aF0.30000001192092896
aa(lp621
F79.993240356445312
aF0.0
aF0.0
aaF0.033317000000000263
aa(lp622
(lp623
F11.681767463684082
aF-4.1895456314086914
aF0.30000001192092896
aa(lp624
F80.55267333984375
aF0.0
aF0.0
aaF0.03360800000000097
aa(lp625
(lp626
F11.727096557617188
aF-3.9131717681884766
aF0.30000001192092896
aa(lp627
F80.818695068359375
aF0.0
aF0.0
aaF0.033122999999999791
aa(lp628
(lp629
F11.77120304107666
aF-3.6406934261322021
aF0.30000001192092896
aa(lp630
F80.791702270507812
aF0.0
aF0.0
aaF0.033370999999998929
aa(lp631
(lp632
F11.816472053527832
aF-3.3663115501403809
aF0.30000001192092896
aa(lp633
F80.470916748046875
aF0.0
aF0.0
aaF0.033228000000001146
aa(lp634
(lp635
F11.863768577575684
aF-3.0934817790985107
aF0.30000001192092896
aa(lp636
F79.859733581542969
aF0.0
aF0.0
aaF0.033306999999998865
aa(lp637
(lp638
F11.914795875549316
aF-2.8206572532653809
aF0.30000001192092896
aa(lp639
F78.952552795410156
aF0.0
aF0.0
aaF0.03340999999999994
aa(lp640
(lp641
F11.971023559570312
aF-2.547982931137085
aF0.30000001192092896
aa(lp642
F77.744163513183594
aF0.0
aF0.0
aaF0.033170000000000144
aa(lp643
(lp644
F12.033222198486328
aF-2.2786629199981689
aF0.30000001192092896
aa(lp645
F76.247611999511719
aF0.0
aF0.0
aaF0.033387000000001166
aa(lp646
(lp647
F12.103621482849121
aF-2.0095038414001465
aF0.30000001192092896
aa(lp648
F74.437080383300781
aF0.0
aF0.0
aaF0.033291999999999433
aa(lp649
(lp650
F12.182964324951172
aF-1.7436745166778564
aF0.30000001192092896
aa(lp651
F72.325065612792969
aF0.0
aF0.0
aaF0.033326000000000633
aa(lp652
(lp653
F12.272860527038574
aF-1.4809318780899048
aF0.30000001192092896
aa(lp654
F69.898658752441406
aF0.0
aF0.0
aaF0.033376999999999768
aa(lp655
(lp656
F12.37468147277832
aF-1.2221260070800781
aF0.30000001192092896
aa(lp657
F67.149520874023438
aF0.0
aF0.0
aaF0.033431000000000211
aa(lp658
(lp659
F12.489713668823242
aF-0.96842890977859497
aF0.30000001192092896
aa(lp660
F64.069122314453125
aF0.0
aF0.0
aaF0.033389999999998921
aa(lp661
(lp662
F12.618762016296387
aF-0.72196030616760254
aF0.30000001192092896
aa(lp663
F60.658790588378906
aF0.0
aF0.0
aaF0.03329700000000102
aa(lp664
(lp665
F12.76252555847168
aF-0.48469015955924988
aF0.30000001192092896
aa(lp666
F56.917396545410156
aF0.0
aF0.0
aaF0.033476000000000283
aa(lp667
(lp668
F12.923053741455078
aF-0.25661236047744751
aF0.30000001192092896
aa(lp669
F52.804248809814453
aF0.0
aF0.0
aaF0.033571999999999491
aa(lp670
(lp671
F13.100056648254395
aF-0.04003530740737915
aF0.30000001192092896
aa(lp672
F48.679306030273438
aF0.0
aF0.0
aaF0.033161999999999026
aa(lp673
(lp674
F13.289746284484863
aF0.16085048019886017
aF0.30000001192092896
aa(lp675
F44.604740142822266
aF0.0
aF0.0
aaF0.033420000000001338
aa(lp676
(lp677
F13.494864463806152
aF0.34914693236351013
aF0.30000001192092896
aa(lp678
F40.49847412109375
aF0.0
aF0.0
aaF0.033355999999999497
aa(lp679
(lp680
F13.712510108947754
aF0.52195572853088379
aF0.30000001192092896
aa(lp681
F36.400070190429688
aF0.0
aF0.0
aaF0.033338999999999785
aa(lp682
(lp683
F13.941829681396484
aF0.67869186401367188
aF0.30000001192092896
aa(lp684
F32.303756713867188
aF0.0
aF0.0
aaF0.03328800000000065
aa(lp685
(lp686
F14.18138599395752
aF0.81844562292098999
aF0.30000001192092896
aa(lp687
F28.213710784912109
aF0.0
aF0.0
aaF0.033657999999999078
aa(lp688
(lp689
F14.433114051818848
aF0.9420163631439209
aF0.30000001192092896
aa(lp690
F24.078201293945312
aF0.0
aF0.0
aaF0.033046000000000575
aa(lp691
(lp692
F14.688304901123047
aF1.0453692674636841
aF0.30000001192092896
aa(lp693
F20.017889022827148
aF0.0
aF0.0
aaF0.033376000000000516
aa(lp694
(lp695
F14.952817916870117
aF1.1311485767364502
aF0.30000001192092896
aa(lp696
F15.917028427124023
aF0.0
aF0.0
aaF0.033215999999999468
aa(lp697
(lp698
F15.221482276916504
aF1.1975191831588745
aF0.30000001192092896
aa(lp699
F11.835827827453613
aF0.0
aF0.0
aaF0.033417999999999282
aa(lp700
(lp701
F15.495857238769531
aF1.2448272705078125
aF0.30000001192092896
aa(lp702
F7.7298073768615723
aF0.0
aF0.0
aaF0.033338999999999785
aa(lp703
(lp704
F15.772258758544922
aF1.2723263502120972
aF0.30000001192092896
aa(lp705
F3.6334936618804932
aF0.0
aF0.0
aaF0.034070999999999962
aa(lp706
(lp707
F16.056018829345703
aF1.2799569368362427
aF0.30000001192092896
aa(lp708
F-0.55275976657867432
aF0.0
aF0.0
aaF0.03341700000000003
aa(lp709
(lp710
F16.334146499633789
aF1.2672994136810303
aF0.30000001192092896
aa(lp711
F-4.6586570739746094
aF0.0
aF0.0
aaF0.033241000000000298
aa(lp712
(lp713
F16.609203338623047
aF1.2349836826324463
aF0.30000001192092896
aa(lp714
F-8.7429304122924805
aF0.0
aF0.0
aaF0.033374000000000237
aa(lp715
(lp716
F16.882341384887695
aF1.1829131841659546
aF0.30000001192092896
aa(lp717
F-12.843544006347656
aF0.0
aF0.0
aaF0.03309699999999971
aa(lp718
(lp719
F17.148849487304688
aF1.1121164560317993
aF0.30000001192092896
aa(lp720
F-16.910123825073242
aF0.0
aF0.0
aaF0.033325999999998857
aa(lp721
(lp722
F17.411447525024414
aF1.0219148397445679
aF0.30000001192092896
aa(lp723
F-21.004840850830078
aF0.0
aF0.0
aaF0.033238000000000767
aa(lp724
(lp725
F17.666606903076172
aF0.91427671909332275
aF0.30000001192092896
aa(lp726
F-24.7396240234375
aF0.0
aF0.0
aaF0.033334999999999226
aa(lp727
(lp728
F17.915300369262695
aF0.79059743881225586
aF0.30000001192092896
aa(lp729
F-28.143980026245117
aF0.0
aF0.0
aaF0.033273000000001218
aa(lp730
(lp731
F18.156177520751953
aF0.65333098173141479
aF0.30000001192092896
aa(lp732
F-31.210615158081055
aF0.0
aF0.0
aaF0.033229000000000397
aa(lp733
(lp734
F18.389488220214844
aF0.5042346715927124
aF0.30000001192092896
aa(lp735
F-33.950283050537109
aF0.0
aF0.0
aaF0.033390999999999948
aa(lp736
(lp737
F18.616939544677734
aF0.34398013353347778
aF0.30000001192092896
aa(lp738
F-36.383968353271484
aF0.0
aF0.0
aaF0.033341999999999317
aa(lp739
(lp740
F18.837530136108398
aF0.17506575584411621
aF0.30000001192092896
aa(lp741
F-38.501506805419922
aF0.0
aF0.0
aaF0.033331000000000444
aa(lp742
(lp743
F19.052133560180664
aF-0.001251951907761395
aF0.30000001192092896
aa(lp744
F-40.310958862304688
aF0.0
aF0.0
aaF0.033132999999999413
aa(lp745
(lp746
F19.260318756103516
aF-0.18261009454727173
aF0.30000001192092896
aa(lp747
F-41.810047149658203
aF0.0
aF0.0
aaF0.032838999999999174
aa(lp748
(lp749
F19.462375640869141
aF-0.36716145277023315
aF0.30000001192092896
aa(lp750
F-43.004833221435547
aF0.0
aF0.0
aaF0.033294000000001489
aa(lp751
(lp752
F19.663753509521484
aF-0.55801093578338623
aF0.30000001192092896
aa(lp753
F-43.919769287109375
aF0.0
aF0.0
aaF0.03340799999999966
aa(lp754
(lp755
F19.863237380981445
aF-0.75220739841461182
aF0.30000001192092896
aa(lp756
F-44.541469573974609
aF0.0
aF0.0
aaF0.033362000000000336
aa(lp757
(lp758
F20.060834884643555
aF-0.94777917861938477
aF0.30000001192092896
aa(lp759
F-44.868148803710938
aF0.0
aF0.0
aaF0.033511999999999986
aa(lp760
(lp761
F20.258705139160156
aF-1.1448509693145752
aF0.30000001192092896
aa(lp762
F-44.900222778320312
aF0.0
aF0.0
aaF0.033208999999999378
aa(lp763
(lp764
F20.455171585083008
aF-1.339752197265625
aF0.30000001192092896
aa(lp765
F-44.641330718994141
aF0.0
aF0.0
aaF0.033300000000000551
aa(lp766
(lp767
F20.653554916381836
aF-1.5337872505187988
aF0.30000001192092896
aa(lp768
F-44.088878631591797
aF0.0
aF0.0
aaF0.033346999999999127
aa(lp769
(lp770
F20.854578018188477
aF-1.7256525754928589
aF0.30000001192092896
aa(lp771
F-43.240741729736328
aF0.0
aF0.0
aaF0.033342000000001093
aa(lp772
(lp773
F21.058874130249023
aF-1.9139633178710938
aF0.30000001192092896
aa(lp774
F-42.096004486083984
aF0.0
aF0.0
aaF0.033341000000000065
aa(lp775
(lp776
F21.267364501953125
aF-2.0976040363311768
aF0.30000001192092896
aa(lp777
F-40.652004241943359
aF0.0
aF0.0
aaF0.033595999999999293
aa(lp778
(lp779
F21.482540130615234
aF-2.2766966819763184
aF0.30000001192092896
aa(lp780
F-38.889701843261719
aF0.0
aF0.0
aaF0.033141999999999783
aa(lp781
(lp782
F21.700553894042969
aF-2.4462249279022217
aF0.30000001192092896
aa(lp783
F-36.84820556640625
aF0.0
aF0.0
aaF0.033350999999999686
aa(lp784
(lp785
F21.926334381103516
aF-2.6082570552825928
aF0.30000001192092896
aa(lp786
F-34.482181549072266
aF0.0
aF0.0
aaF0.033330000000001192
aa(lp787
(lp788
F22.158878326416016
aF-2.7600913047790527
aF0.30000001192092896
aa(lp789
F-31.800746917724609
aF0.0
aF0.0
aaF0.033455999999999264
aa(lp790
(lp791
F22.399585723876953
aF-2.9007039070129395
aF0.30000001192092896
aa(lp792
F-28.783296585083008
aF0.0
aF0.0
aaF0.033486999999999156
aa(lp793
(lp794
F22.647958755493164
aF-3.0278360843658447
aF0.30000001192092896
aa(lp795
F-25.428991317749023
aF0.0
aF0.0
aaF0.033792000000000044
aa(lp796
(lp797
F22.906034469604492
aF-3.1403834819793701
aF0.30000001192092896
aa(lp798
F-21.695144653320312
aF0.0
aF0.0
aaF0.033483000000000374
aa(lp799
(lp800
F23.168724060058594
aF-3.2342801094055176
aF0.30000001192092896
aa(lp801
F-17.643003463745117
aF0.0
aF0.0
aaF0.033336000000000254
aa(lp802
(lp803
F23.436241149902344
aF-3.3089468479156494
aF0.30000001192092896
aa(lp804
F-13.54705810546875
aF0.0
aF0.0
aaF0.033630999999999744
aa(lp805
(lp806
F23.710830688476562
aF-3.3647181987762451
aF0.30000001192092896
aa(lp807
F-9.4148664474487305
aF0.0
aF0.0
aaF0.033065999999999818
aa(lp808
(lp809
F23.984039306640625
aF-3.4001214504241943
aF0.30000001192092896
aa(lp810
F-5.3520956039428711
aF0.0
aF0.0
aaF0.033361000000001084
aa(lp811
(lp812
F24.261526107788086
aF-3.4161338806152344
aF0.30000001192092896
aa(lp813
F-1.2530789375305176
aF0.0
aF0.0
aaF0.033533000000000257
aa(lp814
(lp815
F24.54088020324707
aF-3.4121990203857422
aF0.30000001192092896
aa(lp816
F2.8670713901519775
aF0.0
aF0.0
aaF0.033483999999999625
aa(lp817
(lp818
F24.818824768066406
aF-3.3882529735565186
aF0.30000001192092896
aa(lp819
F6.981201171875
aF0.0
aF0.0
aaF0.033301999999999055
aa(lp820
(lp821
F25.092845916748047
aF-3.344719409942627
aF0.30000001192092896
aa(lp822
F11.072968482971191
aF0.0
aF0.0
aaF0.033378000000000796
aa(lp823
(lp824
F25.363876342773438
aF-3.2824087142944336
aF0.30000001192092896
aa(lp825
F14.822029113769531
aF0.0
aF0.0
aaF0.03341499999999975
aa(lp826
(lp827
F25.630790710449219
aF-3.2032074928283691
aF0.30000001192092896
aa(lp828
F18.232326507568359
aF0.0
aF0.0
aaF0.03340099999999957
aa(lp829
(lp830
F25.892694473266602
aF-3.1090717315673828
aF0.30000001192092896
aa(lp831
F21.307321548461914
aF0.0
aF0.0
aaF0.033405000000000129
aa(lp832
(lp833
F26.149515151977539
aF-3.0017366409301758
aF0.30000001192092896
aa(lp834
F24.056438446044922
aF0.0
aF0.0
aaF0.033336000000000254
aa(lp835
(lp836
F26.400714874267578
aF-2.8831610679626465
aF0.30000001192092896
aa(lp837
F26.481681823730469
aF0.0
aF0.0
aaF0.033329000000000164
aa(lp838
(lp839
F26.646976470947266
aF-2.7547585964202881
aF0.30000001192092896
aa(lp840
F28.594156265258789
aF0.0
aF0.0
aaF0.033407000000000409
aa(lp841
(lp842
F26.88926887512207
aF-2.6176841259002686
aF0.30000001192092896
aa(lp843
F30.402853012084961
aF0.0
aF0.0
aaF0.033370999999998929
aa(lp844
(lp845
F27.127246856689453
aF-2.4738190174102783
aF0.30000001192092896
aa(lp846
F31.905740737915039
aF0.0
aF0.0
aaF0.033242000000001326
aa(lp847
(lp848
F27.360862731933594
aF-2.3249592781066895
aF0.30000001192092896
aa(lp849
F33.104721069335938
aF0.0
aF0.0
aaF0.03340999999999994
aa(lp850
(lp851
F27.592872619628906
aF-2.1710574626922607
aF0.30000001192092896
aa(lp852
F34.011371612548828
aF0.0
aF0.0
aaF0.033051999999999637
aa(lp853
(lp854
F27.820365905761719
aF-2.0157854557037354
aF0.30000001192092896
aa(lp855
F34.618282318115234
aF0.0
aF0.0
aaF0.033177999999999486
aa(lp856
(lp857
F28.047460556030273
aF-1.8580821752548218
aF0.30000001192092896
aa(lp858
F34.936603546142578
aF0.0
aF0.0
aaF0.033286999999999622
aa(lp859
(lp860
F28.274826049804688
aF-1.6991742849349976
aF0.30000001192092896
aa(lp861
F34.963863372802734
aF0.0
aF0.0
aaF0.033279000000000281
aa(lp862
(lp863
F28.502462387084961
aF-1.5407760143280029
aF0.30000001192092896
aa(lp864
F34.699211120605469
aF0.0
aF0.0
aaF0.033367999999999398
aa(lp865
(lp866
F28.731845855712891
aF-1.3835999965667725
aF0.30000001192092896
aa(lp867
F34.139793395996094
aF0.0
aF0.0
aaF0.033763000000000432
aa(lp868
(lp869
F28.965906143188477
aF-1.2274686098098755
aF0.30000001192092896
aa(lp870
F33.271392822265625
aF0.0
aF0.0
aaF0.033177000000000234
aa(lp871
(lp872
F29.198564529418945
aF-1.0781170129776001
aF0.30000001192092896
aa(lp873
F32.124202728271484
aF0.0
aF0.0
aaF0.033431000000000211
aa(lp874
(lp875
F29.436361312866211
aF-0.93298977613449097
aF0.30000001192092896
aa(lp876
F30.667228698730469
aF0.0
aF0.0
aaF0.033507000000000176
aa(lp877
(lp878
F29.678689956665039
aF-0.79429447650909424
aF0.30000001192092896
aa(lp879
F28.901201248168945
aF0.0
aF0.0
aaF0.033434999999998993
aa(lp880
(lp881
F29.924993515014648
aF-0.66407155990600586
aF0.30000001192092896
aa(lp882
F26.830438613891602
aF0.0
aF0.0
aaF0.033352999999999966
aa(lp883
(lp884
F30.175546646118164
aF-0.54380333423614502
aF0.30000001192092896
aa(lp885
F24.452875137329102
aF0.0
aF0.0
aaF0.033437000000001049
aa(lp886
(lp887
F30.431819915771484
aF-0.43448525667190552
aF0.30000001192092896
aa(lp888
F21.750152587890625
aF0.0
aF0.0
aaF0.033291000000000182
aa(lp889
(lp890
F30.692079544067383
aF-0.33850556612014771
aF0.30000001192092896
aa(lp891
F18.736297607421875
aF0.0
aF0.0
aaF0.03337799999999902
aa(lp892
(lp893
F30.957952499389648
aF-0.2569185197353363
aF0.30000001192092896
aa(lp894
F15.382417678833008
aF0.0
aF0.0
aaF0.03356199999999987
aa(lp895
(lp896
F31.229833602905273
aF-0.19152538478374481
aF0.30000001192092896
aa(lp897
F11.665539741516113
aF0.0
aF0.0
aaF0.033018000000000214
aa(lp898
(lp899
F31.501022338867188
aF-0.14533692598342896
aF0.30000001192092896
aa(lp900
F7.6660151481628418
aF0.0
aF0.0
aaF0.033326999999999884
aa(lp901
(lp902
F31.777353286743164
aF-0.11815179139375687
aF0.30000001192092896
aa(lp903
F3.5711758136749268
aF0.0
aF0.0
aaF0.033362000000000336
aa(lp904
(lp905
F32.055213928222656
aF-0.11077093333005905
aF0.30000001192092896
aa(lp906
F-0.52796381711959839
aF0.0
aF0.0
aaF0.033298000000000272
aa(lp907
(lp908
F32.332405090332031
aF-0.12238100171089172
aF0.30000001192092896
aa(lp909
F-4.2688679695129395
aF0.0
aF0.0
aaF0.033151000000000153
aa(lp910
(lp911
F32.607128143310547
aF-0.15107277035713196
aF0.30000001192092896
aa(lp912
F-7.6556782722473145
aF0.0
aF0.0
aaF0.033329000000000164
aa(lp913
(lp914
F32.881271362304688
aF-0.19543442130088806
aF0.30000001192092896
aa(lp915
F-10.728144645690918
aF0.0
aF0.0
aaF0.033301999999999055
aa(lp916
(lp917
F33.152595520019531
aF-0.25360605120658875
aF0.30000001192092896
aa(lp918
F-13.473783493041992
aF0.0
aF0.0
aaF0.033366000000000895
aa(lp919
(lp920
F33.421535491943359
aF-0.32411032915115356
aF0.30000001192092896
aa(lp921
F-15.905837059020996
aF0.0
aF0.0
aaF0.033410999999999191
aa(lp922
(lp923
F33.687828063964844
aF-0.40535390377044678
aF0.30000001192092896
aa(lp924
F-18.027301788330078
aF0.0
aF0.0
aaF0.033361000000001084
aa(lp925
(lp926
F33.950786590576172
aF-0.49555099010467529
aF0.30000001192092896
aa(lp927
F-19.837657928466797
aF0.0
aF0.0
aaF0.033291000000000182
aa(lp928
(lp929
F34.210479736328125
aF-0.59311121702194214
aF0.30000001192092896
aa(lp930
F-21.341754913330078
aF0.0
aF0.0
aaF0.033386000000000138
aa(lp931
(lp932
F34.468532562255859
aF-0.69708603620529175
aF0.30000001192092896
aa(lp933
F-22.549413681030273
aF0.0
aF0.0
aaF0.033311999999998676
aa(lp934
(lp935
F34.724056243896484
aF-0.80556780099868774
aF0.30000001192092896
aa(lp936
F-23.457729339599609
aF0.0
aF0.0
aaF0.033398000000000039
aa(lp937
(lp938
F34.978771209716797
aF-0.91772496700286865
aF0.30000001192092896
aa(lp939
F-24.072237014770508
aF0.0
aF0.0
aaF0.03357600000000005
aa(lp940
(lp941
F35.233917236328125
aF-1.0325645208358765
aF0.30000001192092896
aa(lp942
F-24.392101287841797
aF0.0
aF0.0
aaF0.033151000000000153
aa(lp943
(lp944
F35.485492706298828
aF-1.1467107534408569
aF0.30000001192092896
aa(lp945
F-24.418193817138672
aF0.0
aF0.0
aaF0.03328800000000065
aa(lp946
(lp947
F35.738346099853516
aF-1.2607996463775635
aF0.30000001192092896
aa(lp948
F-24.152328491210938
aF0.0
aF0.0
aaF0.033383999999999858
aa(lp949
(lp950
F35.992744445800781
aF-1.3733845949172974
aF0.30000001192092896
aa(lp951
F-23.591350555419922
aF0.0
aF0.0
aaF0.033287999999998874
aa(lp952
(lp953
F36.247776031494141
aF-1.4825060367584229
aF0.30000001192092896
aa(lp954
F-22.738080978393555
aF0.0
aF0.0
aaF0.033266000000001128
aa(lp955
(lp956
F36.504505157470703
aF-1.5870867967605591
aF0.30000001192092896
aa(lp957
F-21.589954376220703
aF0.0
aF0.0
aaF0.033611000000000502
aa(lp958
(lp959
F36.7662353515625
aF-1.6868107318878174
aF0.30000001192092896
aa(lp960
F-20.125680923461914
aF0.0
aF0.0
aaF0.03307899999999897
aa(lp961
(lp962
F37.026462554931641
aF-1.7777172327041626
aF0.30000001192092896
aa(lp963
F-18.386634826660156
aF0.0
aF0.0
aaF0.033291000000000182
aa(lp964
(lp965
F37.291236877441406
aF-1.8604830503463745
aF0.30000001192092896
aa(lp966
F-16.33064079284668
aF0.0
aF0.0
aaF0.033352000000000714
aa(lp967
(lp968
F37.559497833251953
aF-1.9330909252166748
aF0.30000001192092896
aa(lp969
F-13.95911693572998
aF0.0
aF0.0
aaF0.033402999999999849
aa(lp970
(lp971
F37.83111572265625
aF-1.9938658475875854
aF0.30000001192092896
aa(lp972
F-11.265564918518066
aF0.0
aF0.0
aaF0.033246000000000109
aa(lp973
(lp974
F38.104118347167969
aF-2.0408461093902588
aF0.30000001192092896
aa(lp975
F-8.2627553939819336
aF0.0
aF0.0
aaF0.033412999999999471
aa(lp976
(lp977
F38.380683898925781
aF-2.072784423828125
aF0.30000001192092896
aa(lp978
F-4.9121842384338379
aF0.0
aF0.0
aaF0.033293000000000461
aa(lp979
(lp980
F38.657680511474609
aF-2.0876574516296387
aF0.30000001192092896
aa(lp981
F-1.234858512878418
aF0.0
aF0.0
aaF0.033369999999999678
aa(lp982
(lp983
F38.935714721679688
aF-2.0855326652526855
aF0.30000001192092896
aa(lp984
F2.1106257438659668
aF0.0
aF0.0
aaF0.033507000000000176
aa(lp985
(lp986
F39.214347839355469
aF-2.0678901672363281
aF0.30000001192092896
aa(lp987
F5.1353211402893066
aF0.0
aF0.0
aaF0.033175999999999206
aa(lp988
(lp989
F39.489028930664062
aF-2.0367281436920166
aF0.30000001192092896
aa(lp990
F7.809603214263916
aF0.0
aF0.0
aaF0.0332650000000001
aa(lp991
(lp992
F39.762809753417969
aF-1.9934024810791016
aF0.30000001192092896
aa(lp993
F10.175288200378418
aF0.0
aF0.0
aaF0.033362000000000336
aa(lp994
(lp995
F40.035511016845703
aF-1.9393782615661621
aF0.30000001192092896
aa(lp996
F12.235918998718262
aF0.0
aF0.0
aaF0.033317999999999515
aa(lp997
(lp998
F40.305912017822266
aF-1.8763957023620605
aF0.30000001192092896
aa(lp999
F13.987528800964355
aF0.0
aF0.0
aaF0.033264000000000848
aa(lp1000
(lp1001
F40.574020385742188
aF-1.8060030937194824
aF0.30000001192092896
aa(lp1002
F15.435018539428711
aF0.0
aF0.0
aaF0.033333999999999975
aa(lp1003
(lp1004
F40.841022491455078
aF-1.7293871641159058
aF0.30000001192092896
aa(lp1005
F16.586315155029297
aF0.0
aF0.0
aaF0.033269999999999911
aa(lp1006
(lp1007
F41.106136322021484
aF-1.6482672691345215
aF0.30000001192092896
aa(lp1008
F17.439901351928711
aF0.0
aF0.0
aaF0.033341000000000065
aa(lp1009
(lp1010
F41.370796203613281
aF-1.5637012720108032
aF0.30000001192092896
aa(lp1011
F18.000467300415039
aF0.0
aF0.0
aaF0.033279999999999532
aa(lp1012
(lp1013
F41.634353637695312
aF-1.477384090423584
aF0.30000001192092896
aa(lp1014
F18.267486572265625
aF0.0
aF0.0
aaF0.033293000000000461
aa(lp1015
(lp1016
F41.897811889648438
aF-1.3904190063476562
aF0.30000001192092896
aa(lp1017
F18.267486572265625
aF0.0
aF0.0
aaF0.033345999999999876
aa(lp1018
(lp1019
F42.161693572998047
aF-1.3033155202865601
aF0.30000001192092896
aa(lp1020
F18.267486572265625
aF0.0
aF0.0
aaF0.033386000000000138
aa(lp1021
(lp1022
F42.425888061523438
aF-1.2161074876785278
aF0.30000001192092896
aa(lp1023
F18.267486572265625
aF0.0
aF0.0
aaF0.033305999999999614
aa(lp1024
(lp1025
F42.689449310302734
aF-1.1291084289550781
aF0.30000001192092896
aa(lp1026
F18.267486572265625
aF0.0
aF0.0
aaF0.033326999999999884
aa(lp1027
(lp1028
F42.953178405761719
aF-1.0420545339584351
aF0.30000001192092896
aa(lp1029
F18.267486572265625
aF0.0
aF0.0
aaF0.033877000000000379
aa(lp1030
(lp1031
F43.221260070800781
aF-0.95356392860412598
aF0.30000001192092896
aa(lp1032
F18.267486572265625
aF0.0
aF0.0
aaF0.032811999999999841
aa(lp1033
(lp1034
F43.480915069580078
aF-0.8678552508354187
aF0.30000001192092896
aa(lp1035
F18.267486572265625
aF0.0
aF0.0
aaF0.033386000000000138
aa(lp1036
(lp1037
F43.745109558105469
aF-0.78064721822738647
aF0.30000001192092896
aa(lp1038
F18.267486572265625
aF0.0
aF0.0
aaF0.033367999999999398
aa(lp1039
(lp1040
F44.009162902832031
aF-0.69348621368408203
aF0.30000001192092896
aa(lp1041
F18.267486572265625
aF0.0
aF0.0
aaF0.033333999999999975
aa(lp1042
(lp1043
F44.272945404052734
aF-0.60641396045684814
aF0.30000001192092896
aa(lp1044
F18.267486572265625
aF0.0
aF0.0
aaF0.033348000000000155
aa(lp1045
(lp1046
F44.536842346191406
aF-0.51930522918701172
aF0.30000001192092896
aa(lp1047
F18.267486572265625
aF0.0
aF0.0
aaF0.033596000000001069
aa(lp1048
(lp1049
F44.802696228027344
aF-0.43154865503311157
aF0.30000001192092896
aa(lp1050
F18.267486572265625
aF0.0
aF0.0
aaF0.033115999999999701
aa(lp1051
(lp1052
F45.06475830078125
aF-0.34504589438438416
aF0.30000001192092896
aa(lp1053
F18.267486572265625
aF0.0
aF0.0
aaF0.033329999999999416
aa(lp1054
(lp1055
F45.328510284423828
aF-0.25798413157463074
aF0.30000001192092896
aa(lp1056
F18.267486572265625
aF0.0
aF0.0
aaF0.033395999999999759
aa(lp1057
(lp1058
F45.592784881591797
aF-0.1707499772310257
aF0.30000001192092896
aa(lp1059
F18.267486572265625
aF0.0
aF0.0
aaF0.033271000000000939
aa(lp1060
(lp1061
F45.856067657470703
aF-0.083842344582080841
aF0.30000001192092896
aa(lp1062
F18.267486572265625
aF0.0
aF0.0
aaF0.033412999999999471
aa(lp1063
(lp1064
F46.120479583740234
aF0.0034362140577286482
aF0.30000001192092896
aa(lp1065
F18.267486572265625
aF0.0
aF0.0
aaF0.03337799999999902
aa(lp1066
(lp1067
F46.384609222412109
aF0.090623348951339722
aF0.30000001192092896
aa(lp1068
F18.267486572265625
aF0.0
aF0.0
aaF0.033302000000000831
aa(lp1069
(lp1070
F46.648139953613281
aF0.17761196196079254
aF0.30000001192092896
aa(lp1071
F18.267486572265625
aF0.0
aF0.0
aaF0.033371000000000706
aa(lp1072
(lp1073
F46.912220001220703
aF0.26478081941604614
aF0.30000001192092896
aa(lp1074
F18.267486572265625
aF0.0
aF0.0
aaF0.033852999999998801
aa(lp1075
(lp1076
F47.180110931396484
aF0.35320869088172913
aF0.30000001192092896
aa(lp1077
F18.267486572265625
aF0.0
aF0.0
aaF0.032833000000000112
aa(lp1078
(lp1079
F47.439929962158203
aF0.43897223472595215
aF0.30000001192092896
aa(lp1080
F18.267486572265625
aF0.0
aF0.0
aaF0.033319999999999794
aa(lp1081
(lp1082
F47.703601837158203
aF0.52600783109664917
aF0.30000001192092896
aa(lp1083
F18.267486572265625
aF0.0
aF0.0
aaF0.033390999999999948
aa(lp1084
(lp1085
F47.967838287353516
aF0.61322897672653198
aF0.30000001192092896
aa(lp1086
F18.267486572265625
aF0.0
aF0.0
aaF0.033322000000000074
aa(lp1087
(lp1088
F48.231525421142578
aF0.70026981830596924
aF0.30000001192092896
aa(lp1089
F18.267486572265625
aF0.0
aF0.0
aaF0.033385000000000886
aa(lp1090
(lp1091
F48.495712280273438
aF0.78747522830963135
aF0.30000001192092896
aa(lp1092
F18.267486572265625
aF0.0
aF0.0
aaF0.033379999999999299
aa(lp1093
(lp1094
F48.759860992431641
aF0.87466758489608765
aF0.30000001192092896
aa(lp1095
F18.267486572265625
aF0.0
aF0.0
aaF0.033338999999999785
aa(lp1096
(lp1097
F49.023685455322266
aF0.96175283193588257
aF0.30000001192092896
aa(lp1098
F18.267486572265625
aF0.0
aF0.0
aaF0.033378000000000796
aa(lp1099
(lp1100
F49.287818908691406
aF1.0489399433135986
aF0.30000001192092896
aa(lp1101
F18.267486572265625
aF0.0
aF0.0
aaF0.033300000000000551
aa(lp1102
(lp1103
F49.551334381103516
aF1.1359233856201172
aF0.30000001192092896
aa(lp1104
F18.267486572265625
aF0.0
aF0.0
aaF0.03338299999999883
aa(lp1105
(lp1106
F49.815505981445312
aF1.2231235504150391
aF0.30000001192092896
aa(lp1107
F18.267486572265625
aF0.0
aF0.0
aaF0.03329700000000102
aa(lp1108
(lp1109
F50.078994750976562
aF1.3100991249084473
aF0.30000001192092896
aa(lp1110
F18.267486572265625
aF0.0
aF0.0
aaF0.033422999999999092
aa(lp1111
(lp1112
F50.343482971191406
aF1.3974038362503052
aF0.30000001192092896
aa(lp1113
F18.267486572265625
aF0.0
aF0.0
aaF0.033307000000000642
aa(lp1114
(lp1115
F50.6070556640625
aF1.484405517578125
aF0.30000001192092896
aa(lp1116
F18.267486572265625
aF0.0
aF0.0
aaF0.03340099999999957
aa(lp1117
(lp1118
F50.871368408203125
aF1.5716526508331299
aF0.30000001192092896
aa(lp1119
F18.267486572265625
aF0.0
aF0.0
aaF0.033336000000000254
aa(lp1120
(lp1121
F51.135169982910156
aF1.658730149269104
aF0.30000001192092896
aa(lp1122
F18.267486572265625
aF0.0
aF0.0
aaF0.033331999999999695
aa(lp1123
(lp1124
F51.398937225341797
aF1.7457970380783081
aF0.30000001192092896
aa(lp1125
F18.267486572265625
aF0.0
aF0.0
aaF0.033367000000000147
aa(lp1126
(lp1127
F51.662982940673828
aF1.8329554796218872
aF0.30000001192092896
aa(lp1128
F18.267486572265625
aF0.0
aF0.0
aaF0.033288999999999902
aa(lp1129
(lp1130
F51.926410675048828
aF1.9199100732803345
aF0.30000001192092896
aa(lp1131
F18.267486572265625
aF0.0
aF0.0
aaF0.03342400000000012
aa(lp1132
(lp1133
F52.190906524658203
aF2.0072174072265625
aF0.30000001192092896
aa(lp1134
F18.267486572265625
aF0.0
aF0.0
aaF0.033395000000000508
aa(lp1135
(lp1136
F52.455173492431641
aF2.0944490432739258
aF0.30000001192092896
aa(lp1137
F18.267486572265625
aF0.0
aF0.0
aaF0.03353699999999904
aa(lp1138
(lp1139
F52.720561981201172
aF2.182051420211792
aF0.30000001192092896
aa(lp1140
F18.267486572265625
aF0.0
aF0.0
aaF0.033100000000001017
aa(lp1141
(lp1142
F52.982494354248047
aF2.268512487411499
aF0.30000001192092896
aa(lp1143
F18.267486572265625
aF0.0
aF0.0
aaF0.033341999999999317
aa(lp1144
(lp1145
F53.246341705322266
aF2.3556053638458252
aF0.30000001192092896
aa(lp1146
F18.267486572265625
aF0.0
aF0.0
aaF0.033357999999999777
aa(lp1147
(lp1148
F53.51031494140625
aF2.4427404403686523
aF0.30000001192092896
aa(lp1149
F18.267486572265625
aF0.0
aF0.0
aaF0.033324999999999605
aa(lp1150
(lp1151
F53.774028778076172
aF2.5297889709472656
aF0.30000001192092896
aa(lp1152
F18.267486572265625
aF0.0
aF0.0
aaF0.033409000000000688
aa(lp1153
(lp1154
F54.038406372070312
aF2.6170570850372314
aF0.30000001192092896
aa(lp1155
F18.267486572265625
aF0.0
aF0.0
aaF0.033296999999999244
aa(lp1156
(lp1157
F54.301898956298828
aF2.7040326595306396
aF0.30000001192092896
aa(lp1158
F18.267486572265625
aF0.0
aF0.0
aaF0.03346500000000141
aa(lp1159
(lp1160
F54.566719055175781
aF2.7914471626281738
aF0.30000001192092896
aa(lp1161
F18.267486572265625
aF0.0
aF0.0
aaF0.033291000000000182
aa(lp1162
(lp1163
F54.830162048339844
aF2.8784070014953613
aF0.30000001192092896
aa(lp1164
F18.267486572265625
aF0.0
aF0.0
aaF0.033339999999999037
aa(lp1165
(lp1166
F55.094215393066406
aF2.9648199081420898
aF0.30000001192092896
aa(lp1167
F17.974481582641602
aF0.0
aF0.0
aaF0.033386999999999389
aa(lp1168
(lp1169
F55.359298706054688
aF3.0493190288543701
aF0.30000001192092896
aa(lp1170
F17.386577606201172
aF0.0
aF0.0
aaF0.033327000000001661
aa(lp1171
(lp1172
F55.624961853027344
aF3.1302657127380371
aF0.30000001192092896
aa(lp1173
F16.504987716674805
aF0.0
aF0.0
aaF0.033343999999999596
aa(lp1174
(lp1175
F55.892173767089844
aF3.20646071434021
aF0.30000001192092896
aa(lp1176
F15.325923919677734
aF0.0
aF0.0
aaF0.033313999999998956
aa(lp1177
(lp1178
F56.160831451416016
aF3.2763781547546387
aF0.30000001192092896
aa(lp1179
F13.848767280578613
aF0.0
aF0.0
aaF0.033405000000000129
aa(lp1180
(lp1181
F56.432109832763672
aF3.3387882709503174
aF0.30000001192092896
aa(lp1182
F12.063386917114258
aF0.0
aF0.0
aaF0.033402999999999849
aa(lp1183
(lp1184
F56.705322265625
aF3.3919777870178223
aF0.30000001192092896
aa(lp1185
F9.9698095321655273
aF0.0
aF0.0
aaF0.033279000000000281
aa(lp1186
(lp1187
F56.979385375976562
aF3.4342648983001709
aF0.30000001192092896
aa(lp1188
F7.5730915069580078
aF0.0
aF0.0
aaF0.03340999999999994
aa(lp1189
(lp1190
F57.256141662597656
aF3.4643814563751221
aF0.30000001192092896
aa(lp1191
F4.8478069305419922
aF0.0
aF0.0
aaF0.03326700000000038
aa(lp1192
(lp1193
F57.532867431640625
aF3.4804801940917969
aF0.30000001192092896
aa(lp1194
F1.8111798763275146
aF0.0
aF0.0
aaF0.033398000000000039
aa(lp1195
(lp1196
F57.811141967773438
aF3.4810645580291748
aF0.30000001192092896
aa(lp1197
F-1.5705703496932983
aF0.0
aF0.0
aaF0.033324999999999605
aa(lp1198
(lp1199
F58.088302612304688
aF3.4644625186920166
aF0.30000001192092896
aa(lp1200
F-5.2852578163146973
aF0.0
aF0.0
aaF0.033359000000000805
aa(lp1201
(lp1202
F58.363971710205078
aF3.429051399230957
aF0.30000001192092896
aa(lp1203
F-9.3545207977294922
aF0.0
aF0.0
aaF0.033346999999999127
aa(lp1204
(lp1205
F58.636322021484375
aF3.3741207122802734
aF0.30000001192092896
aa(lp1206
F-13.451817512512207
aF0.0
aF0.0
aaF0.033399000000001067
aa(lp1207
(lp1208
F58.904460906982422
aF3.2997403144836426
aF0.30000001192092896
aa(lp1209
F-17.555503845214844
aF0.0
aF0.0
aaF0.033319999999999794
aa(lp1210
(lp1211
F59.165977478027344
aF3.2066049575805664
aF0.30000001192092896
aa(lp1212
F-21.649482727050781
aF0.0
aF0.0
aaF0.033325999999998857
aa(lp1213
(lp1214
F59.42022705078125
aF3.0950150489807129
aF0.30000001192092896
aa(lp1215
F-25.744197845458984
aF0.0
aF0.0
aaF0.033413000000001247
aa(lp1216
(lp1217
F59.666484832763672
aF2.9651947021484375
aF0.30000001192092896
aa(lp1218
F-29.849605560302734
aF0.0
aF0.0
aaF0.033324000000000353
aa(lp1219
(lp1220
F59.902202606201172
aF2.8184916973114014
aF0.30000001192092896
aa(lp1221
F-33.944076538085938
aF0.0
aF0.0
aaF0.033386999999999389
aa(lp1222
(lp1223
F60.127254486083984
aF2.6550090312957764
aF0.30000001192092896
aa(lp1224
F-38.046287536621094
aF0.0
aF0.0
aaF0.033325999999998857
aa(lp1225
(lp1226
F60.33966064453125
aF2.4761867523193359
aF0.30000001192092896
aa(lp1227
F-42.141002655029297
aF0.0
aF0.0
aaF0.033563000000000898
aa(lp1228
(lp1229
F60.540122985839844
aF2.2812273502349854
aF0.30000001192092896
aa(lp1230
F-46.264839172363281
aF0.0
aF0.0
aaF0.033167999999999864
aa(lp1231
(lp1232
F60.723945617675781
aF2.0748920440673828
aF0.30000001192092896
aa(lp1233
F-50.340141296386719
aF0.0
aF0.0
aaF0.033343000000000345
aa(lp1234
(lp1235
F60.893486022949219
aF1.8548284769058228
aF0.30000001192092896
aa(lp1236
F-54.436946868896484
aF0.0
aF0.0
aaF0.033350999999999686
aa(lp1237
(lp1238
F61.046909332275391
aF1.6231580972671509
aF0.30000001192092896
aa(lp1239
F-58.534736633300781
aF0.0
aF0.0
aaF0.033322999999999325
aa(lp1240
(lp1241
F61.183277130126953
aF1.3813238143920898
aF0.30000001192092896
aa(lp1242
F-62.629085540771484
aF0.0
aF0.0
aaF0.033376000000000516
aa(lp1243
(lp1244
F61.302204132080078
aF1.1299644708633423
aF0.30000001192092896
aa(lp1245
F-66.729942321777344
aF0.0
aF0.0
aaF0.033291999999999433
aa(lp1246
(lp1247
F61.402618408203125
aF0.87140512466430664
aF0.30000001192092896
aa(lp1248
F-70.820480346679688
aF0.0
aF0.0
aaF0.033394000000001256
aa(lp1249
(lp1250
F61.48455810546875
aF0.60552066564559937
aF0.30000001192092896
aa(lp1251
F-74.923553466796875
aF0.0
aF0.0
aaF0.033374999999999488
aa(lp1252
(lp1253
F61.547233581542969
aF0.33461034297943115
aF0.30000001192092896
aa(lp1254
F-79.0242919921875
aF0.0
aF0.0
aaF0.033338999999999785
aa(lp1255
(lp1256
F61.590339660644531
aF0.060209538787603378
aF0.30000001192092896
aa(lp1257
F-83.12060546875
aF0.0
aF0.0
aaF0.033381000000000327
aa(lp1258
(lp1259
F61.613750457763672
aF-0.21691900491714478
aF0.30000001192092896
aa(lp1260
F-87.222076416015625
aF0.0
aF0.0
aaF0.033369000000000426
aa(lp1261
(lp1262
F61.617282867431641
aF-0.49491223692893982
aF0.30000001192092896
aa(lp1263
F-91.32208251953125
aF0.0
aF0.0
aaF0.033346999999999127
aa(lp1264
(lp1265
F61.600944519042969
aF-0.77226406335830688
aF0.30000001192092896
aa(lp1266
F-95.41937255859375
aF0.0
aF0.0
aaF0.033322000000000074
aa(lp1267
(lp1268
F61.564868927001953
aF-1.0475343465805054
aF0.30000001192092896
aa(lp1269
F-99.513603210449219
aF0.0
aF0.0
aaF0.033418000000001058
aa(lp1270
(lp1271
F61.509044647216797
aF-1.3203039169311523
aF0.30000001192092896
aa(lp1272
F-103.61962127685547
aF0.0
aF0.0
aaF0.033278999999998504
aa(lp1273
(lp1274
F61.434181213378906
aF-1.5872727632522583
aF0.30000001192092896
aa(lp1275
F-107.70856475830078
aF0.0
aF0.0
aaF0.033452000000000481
aa(lp1276
(lp1277
F61.339939117431641
aF-1.8495625257492065
aF0.30000001192092896
aa(lp1278
F-111.81876373291016
aF0.0
aF0.0
aaF0.033326999999999884
aa(lp1279
(lp1280
F61.227596282958984
aF-2.1034860610961914
aF0.30000001192092896
aa(lp1281
F-115.91359710693359
aF0.0
aF0.0
aaF0.033247000000001137
aa(lp1282
(lp1283
F61.097740173339844
aF-2.3481616973876953
aF0.30000001192092896
aa(lp1284
F-119.99861145019531
aF0.0
aF0.0
aaF0.033351999999998938
aa(lp1285
(lp1286
F60.950294494628906
aF-2.5836899280548096
aF0.30000001192092896
aa(lp1287
F-124.09651947021484
aF0.0
aF0.0
aaF0.033421000000000589
aa(lp1288
(lp1289
F60.786037445068359
aF-2.8085312843322754
aF0.30000001192092896
aa(lp1290
F-128.20291137695312
aF0.0
aF0.0
aaF0.033352999999999966
aa(lp1291
(lp1292
F60.606483459472656
aF-3.0206141471862793
aF0.30000001192092896
aa(lp1293
F-132.30094909667969
aF0.0
aF0.0
aaF0.033319000000000543
aa(lp1294
(lp1295
F60.412437438964844
aF-3.219127893447876
aF0.30000001192092896
aa(lp1296
F-136.39480590820312
aF0.0
aF0.0
aaF0.033358999999999028
aa(lp1297
(lp1298
F60.204460144042969
aF-3.403494119644165
aF0.30000001192092896
aa(lp1299
F-140.49357604980469
aF0.0
aF0.0
aaF0.033340000000000813
aa(lp1300
(lp1301
F59.983963012695312
aF-3.5724315643310547
aF0.30000001192092896
aa(lp1302
F-144.59001159667969
aF0.0
aF0.0
aaF0.03336899999999865
aa(lp1303
(lp1304
F59.751754760742188
aF-3.7253117561340332
aF0.30000001192092896
aa(lp1305
F-148.69000244140625
aF0.0
aF0.0
aaF0.033382000000001355
aa(lp1306
(lp1307
F59.509113311767578
aF-3.8612480163574219
aF0.30000001192092896
aa(lp1308
F-152.79161071777344
aF0.0
aF0.0
aaF0.033295999999999992
aa(lp1309
(lp1310
F59.258033752441406
aF-3.9791998863220215
aF0.30000001192092896
aa(lp1311
F-156.88262939453125
aF0.0
aF0.0
aaF0.033412999999999471
aa(lp1312
(lp1313
F58.998252868652344
aF-4.0792560577392578
aF0.30000001192092896
aa(lp1314
F-160.988037109375
aF0.0
aF0.0
aaF0.033312999999999704
aa(lp1315
(lp1316
F58.732780456542969
aF-4.1602435111999512
aF0.30000001192092896
aa(lp1317
F-165.08116149902344
aF0.0
aF0.0
aaF0.033587999999999951
aa(lp1318
(lp1319
F58.459957122802734
aF-4.2225050926208496
aF0.30000001192092896
aa(lp1320
F-169.20806884765625
aF0.0
aF0.0
aaF0.033174000000000703
aa(lp1321
(lp1322
F58.186786651611328
aF-4.2645697593688965
aF0.30000001192092896
aa(lp1323
F-173.28410339355469
aF0.0
aF0.0
aaF0.033472999999998976
aa(lp1324
(lp1325
F57.908824920654297
aF-4.287224292755127
aF0.30000001192092896
aa(lp1326
F-177.39688110351562
aF0.0
aF0.0
aaF0.033326000000000633
aa(lp1327
(lp1328
F57.631179809570312
aF-4.2899174690246582
aF0.30000001192092896
aa(lp1329
F-181.49160766601562
aF0.0
aF0.0
aaF0.033395999999999759
aa(lp1330
(lp1331
F57.353469848632812
aF-4.2727217674255371
aF0.30000001192092896
aa(lp1332
F-185.59492492675781
aF0.0
aF0.0
aaF0.034155000000000157
aa(lp1333
(lp1334
F57.07147216796875
aF-4.2346277236938477
aF0.30000001192092896
aa(lp1335
F-189.79148864746094
aF0.0
aF0.0
aaF0.033636999999998807
aa(lp1336
(lp1337
F56.797203063964844
aF-4.1770405769348145
aF0.30000001192092896
aa(lp1338
F-193.92442321777344
aF0.0
aF0.0
aaF0.033447000000002447
aa(lp1339
(lp1340
F56.529304504394531
aF-4.1003274917602539
aF0.30000001192092896
aa(lp1341
F-198.03401184082031
aF0.0
aF0.0
aaF0.033348999999997631
aa(lp1342
(lp1343
F56.268352508544922
aF-4.0049200057983398
aF0.30000001192092896
aa(lp1344
F-202.13154602050781
aF0.0
aF0.0
aaF0.033635000000000304
aa(lp1345
(lp1346
F56.012374877929688
aF-3.890850305557251
aF0.30000001192092896
aa(lp1347
F-205.90678405761719
aF0.0
aF0.0
aaF0.033691000000001026
aa(lp1348
(lp1349
F55.763656616210938
aF-3.7606942653656006
aF0.30000001192092896
aa(lp1350
F-209.33981323242188
aF0.0
aF0.0
aaF0.033255000000000479
aa(lp1351
(lp1352
F55.52581787109375
aF-3.6185259819030762
aF0.30000001192092896
aa(lp1353
F-212.39756774902344
aF0.0
aF0.0
aaF0.033518000000000825
aa(lp1354
(lp1355
F55.293663024902344
aF-3.4632623195648193
aF0.30000001192092896
aa(lp1356
F-215.151123046875
aF0.0
aF0.0
aaF0.033489999999996911
aa(lp1357
(lp1358
F55.068946838378906
aF-3.2977938652038574
aF0.30000001192092896
aa(lp1359
F-217.58135986328125
aF0.0
aF0.0
aaF0.050205000000001831
aa(lp1360
(lp1361
F54.744075775146484
aF-3.034245491027832
aF0.30000001192092896
aa(lp1362
F-220.5191650390625
aF0.0
aF0.0
aaF0.05001800000000145
aa(lp1363
(lp1364
F54.432598114013672
aF-2.7573089599609375
aF0.30000001192092896
aa(lp1365
F-222.76132202148438
aF0.0
aF0.0
aaF0.033363999999998839
aa(lp1366
(lp1367
F54.230453491210938
aF-2.5664236545562744
aF0.30000001192092896
aa(lp1368
F-223.95671081542969
aF0.0
aF0.0
aaF0.033336999999999506
aa(lp1369
(lp1370
F54.031986236572266
aF-2.3720345497131348
aF0.30000001192092896
aa(lp1371
F-224.85411071777344
aF0.0
aF0.0
aaF0.033312999999999704
aa(lp1372
(lp1373
F53.836219787597656
aF-2.1752057075500488
aF0.30000001192092896
aa(lp1374
F-225.45628356933594
aF0.0
aF0.0
aaF0.033180999999999017
aa(lp1375
(lp1376
F53.642795562744141
aF-1.9776121377944946
aF0.30000001192092896
aa(lp1377
F-225.76516723632812
aF0.0
aF0.0
aaF0.033428000000000679
aa(lp1378
(lp1379
F53.448493957519531
aF-1.7779947519302368
aF0.30000001192092896
aa(lp1380
F-225.78175354003906
aF0.0
aF0.0
aaF0.033294000000001489
aa(lp1381
(lp1382
F53.254524230957031
aF-1.5796157121658325
aF0.30000001192092896
aa(lp1383
F-225.506103515625
aF0.0
aF0.0
aaF0.033345000000000624
aa(lp1384
(lp1385
F53.058799743652344
aF-1.3823720216751099
aF0.30000001192092896
aa(lp1386
F-224.93634033203125
aF0.0
aF0.0
aaF0.033375999999996964
aa(lp1387
(lp1388
F52.860435485839844
aF-1.1874157190322876
aF0.30000001192092896
aa(lp1389
F-224.07054138183594
aF0.0
aF0.0
aaF0.033457000000002068
aa(lp1390
(lp1391
F52.658153533935547
aF-0.99554550647735596
aF0.30000001192092896
aa(lp1392
F-222.90371704101562
aF0.0
aF0.0
aaF0.033293999999997936
aa(lp1393
(lp1394
F52.452537536621094
aF-0.80927556753158569
aF0.30000001192092896
aa(lp1395
F-221.44395446777344
aF0.0
aF0.0
aaF0.033426000000002176
aa(lp1396
(lp1397
F52.240921020507812
aF-0.62816101312637329
aF0.30000001192092896
aa(lp1398
F-219.67402648925781
aF0.0
aF0.0
aaF0.033470999999998696
aa(lp1399
(lp1400
F52.023048400878906
aF-0.45402860641479492
aF0.30000001192092896
aa(lp1401
F-217.5924072265625
aF0.0
aF0.0
aaF0.03337799999999902
aa(lp1402
(lp1403
F51.799179077148438
aF-0.28898799419403076
aF0.30000001192092896
aa(lp1404
F-215.20407104492188
aF0.0
aF0.0
aaF0.050118000000001217
aa(lp1405
(lp1406
F51.449192047119141
aF-0.061264775693416595
aF0.30000001192092896
aa(lp1407
F-210.89683532714844
aF0.0
aF0.0
aaF0.033172000000000423
aa(lp1408
(lp1409
F51.208175659179688
aF0.074038177728652954
aF0.30000001192092896
aa(lp1410
F-207.72154235839844
aF0.0
aF0.0
aaF0.03310600000000008
aa(lp1411
(lp1412
F50.960189819335938
aF0.19483551383018494
aF0.30000001192092896
aa(lp1413
F-204.22154235839844
aF0.0
aF0.0
aaF0.033317000000000263
aa(lp1414
(lp1415
F50.703342437744141
aF0.30011570453643799
aF0.30000001192092896
aa(lp1416
F-200.35494995117188
aF0.0
aF0.0
aaF0.03325800000000001
aa(lp1417
(lp1418
F50.440280914306641
aF0.38717427849769592
aF0.30000001192092896
aa(lp1419
F-196.26858520507812
aF0.0
aF0.0
aaF0.033152999999998656
aa(lp1420
(lp1421
F50.172542572021484
aF0.45508119463920593
aF0.30000001192092896
aa(lp1422
F-192.19512939453125
aF0.0
aF0.0
aaF0.033185000000001352
aa(lp1423
(lp1424
F49.900531768798828
aF0.50466322898864746
aF0.30000001192092896
aa(lp1425
F-188.46574401855469
aF0.0
aF0.0
aaF0.033418000000001058
aa(lp1426
(lp1427
F49.6240234375
aF0.53743636608123779
aF0.30000001192092896
aa(lp1428
F-185.05322265625
aF0.0
aF0.0
aaF0.033144000000000062
aa(lp1429
(lp1430
F49.348381042480469
aF0.55441802740097046
aF0.30000001192092896
aa(lp1431
F-181.99751281738281
aF0.0
aF0.0
aaF0.03352999999999895
aa(lp1432
(lp1433
F49.069007873535156
aF0.557422935962677
aF0.30000001192092896
aa(lp1434
F-179.2349853515625
aF0.0
aF0.0
aaF0.033080000000001775
aa(lp1435
(lp1436
F48.793521881103516
aF0.54794228076934814
aF0.30000001192092896
aa(lp1437
F-176.82293701171875
aF0.0
aF0.0
aaF0.033148000000000621
aa(lp1438
(lp1439
F48.518058776855469
aF0.52756315469741821
aF0.30000001192092896
aa(lp1440
F-174.71492004394531
aF0.0
aF0.0
aaF0.033210999999997881
aa(lp1441
(lp1442
F48.242923736572266
aF0.49773001670837402
aF0.30000001192092896
aa(lp1443
F-172.90812683105469
aF0.0
aF0.0
aaF0.033256000000001507
aa(lp1444
(lp1445
F47.968391418457031
aF0.45990151166915894
aF0.30000001192092896
aa(lp1446
F-171.4007568359375
aF0.0
aF0.0
aaF0.033153999999999684
aa(lp1447
(lp1448
F47.695671081542969
aF0.41571888327598572
aF0.30000001192092896
aa(lp1449
F-170.19465637207031
aF0.0
aF0.0
aaF0.033086999999998312
aa(lp1450
(lp1451
F47.424358367919922
aF0.36660468578338623
aF0.30000001192092896
aa(lp1452
F-169.28370666503906
aF0.0
aF0.0
aaF0.033125000000001847
aa(lp1453
(lp1454
F47.153415679931641
aF0.31380796432495117
aF0.30000001192092896
aa(lp1455
F-168.66311645507812
aF0.0
aF0.0
aaF0.033255000000000479
aa(lp1456
(lp1457
F46.881855010986328
aF0.25854751467704773
aF0.30000001192092896
aa(lp1458
F-168.33236694335938
aF0.0
aF0.0
aaF0.033393000000000228
aa(lp1459
(lp1460
F46.609348297119141
aF0.2021801769733429
aF0.30000001192092896
aa(lp1461
F-168.29425048828125
aF0.0
aF0.0
aaF0.033338999999998009
aa(lp1462
(lp1463
F46.337177276611328
aF0.14641876518726349
aF0.30000001192092896
aa(lp1464
F-168.54913330078125
aF0.0
aF0.0
aaF0.033305999999999614
aa(lp1465
(lp1466
F46.064891815185547
aF0.092618122696876526
aF0.30000001192092896
aa(lp1467
F-169.09669494628906
aF0.0
aF0.0
aaF0.033371000000002482
aa(lp1468
(lp1469
F45.791706085205078
aF0.040623314678668976
aF0.30000001192092896
aa(lp1470
F-169.35125732421875
aF0.0
aF0.0
aaF0.033371999999999957
aa(lp1471
(lp1472
F45.518394470214844
aF-0.010766077786684036
aF0.30000001192092896
aa(lp1473
F-169.35125732421875
aF0.0
aF0.0
aaF0.033401999999998822
aa(lp1474
(lp1475
F45.244838714599609
aF-0.062201663851737976
aF0.30000001192092896
aa(lp1476
F-169.35125732421875
aF0.0
aF0.0
aaF0.033505999999999148
aa(lp1477
(lp1478
F44.970428466796875
aF-0.11379740387201309
aF0.30000001192092896
aa(lp1479
F-169.35125732421875
aF0.0
aF0.0
aaF0.033158000000000243
aa(lp1480
(lp1481
F44.698871612548828
aF-0.16485725343227386
aF0.30000001192092896
aa(lp1482
F-169.35125732421875
aF0.0
aF0.0
aaF0.033310000000000173
aa(lp1483
(lp1484
F44.426067352294922
aF-0.21615117788314819
aF0.30000001192092896
aa(lp1485
F-169.35125732421875
aF0.0
aF0.0
aaF0.033402999999999849
aa(lp1486
(lp1487
F44.152503967285156
aF-0.2675882875919342
aF0.30000001192092896
aa(lp1488
F-169.35125732421875
aF0.0
aF0.0
aaF0.033326999999999884
aa(lp1489
(lp1490
F43.879562377929688
aF-0.31890839338302612
aF0.30000001192092896
aa(lp1491
F-169.35125732421875
aF0.0
aF0.0
aaF0.033342000000001093
aa(lp1492
(lp1493
F43.606498718261719
aF-0.37025159597396851
aF0.30000001192092896
aa(lp1494
F-169.35125732421875
aF0.0
aF0.0
aaF0.033439000000001329
aa(lp1495
(lp1496
F43.332637786865234
aF-0.42174416780471802
aF0.30000001192092896
aa(lp1497
F-169.35125732421875
aF0.0
aF0.0
aaF0.033273999999998694
aa(lp1498
(lp1499
F43.060131072998047
aF-0.47298264503479004
aF0.30000001192092896
aa(lp1500
F-169.35125732421875
aF0.0
aF0.0
aaF0.033370000000001454
aa(lp1501
(lp1502
F42.786968231201172
aF-0.52506875991821289
aF0.30000001192092896
aa(lp1503
F-169.05772399902344
aF0.0
aF0.0
aaF0.033319999999999794
aa(lp1504
(lp1505
F42.514625549316406
aF-0.57916957139968872
aF0.30000001192092896
aa(lp1506
F-168.47132873535156
aF0.0
aF0.0
aaF0.033348000000000155
aa(lp1507
(lp1508
F42.242767333984375
aF-0.63680380582809448
aF0.30000001192092896
aa(lp1509
F-167.58932495117188
aF0.0
aF0.0
aaF0.033370999999998929
aa(lp1510
(lp1511
F41.971809387207031
aF-0.69936317205429077
aF0.30000001192092896
aa(lp1512
F-166.40921020507812
aF0.0
aF0.0
aaF0.033380000000001075
aa(lp1513
(lp1514
F41.702308654785156
aF-0.76821482181549072
aF0.30000001192092896
aa(lp1515
F-164.92842102050781
aF0.0
aF0.0
aaF0.033297999999998495
aa(lp1516
(lp1517
F41.437259674072266
aF-0.84249705076217651
aF0.30000001192092896
aa(lp1518
F-163.75958251953125
aF0.0
aF0.0
aaF0.033321000000000822
aa(lp1519
(lp1520
F41.175514221191406
aF-0.92089736461639404
aF0.30000001192092896
aa(lp1521
F-162.89122009277344
aF0.0
aF0.0
aaF0.033615999999998536
aa(lp1522
(lp1523
F40.914627075195312
aF-1.0026388168334961
aF0.30000001192092896
aa(lp1524
F-162.31503295898438
aF0.0
aF0.0
aaF0.033100000000001017
aa(lp1525
(lp1526
F40.660442352294922
aF-1.0843777656555176
aF0.30000001192092896
aa(lp1527
F-162.03248596191406
aF0.0
aF0.0
aaF0.033376000000000516
aa(lp1528
(lp1529
F40.406459808349609
aF-1.1667443513870239
aF0.30000001192092896
aa(lp1530
F-162.03181457519531
aF0.0
aF0.0
aaF0.03334199999999754
aa(lp1531
(lp1532
F40.154850006103516
aF-1.2483426332473755
aF0.30000001192092896
aa(lp1533
F-162.03181457519531
aF0.0
aF0.0
aaF0.033319000000002319
aa(lp1534
(lp1535
F39.905525207519531
aF-1.3291996717453003
aF0.30000001192092896
aa(lp1536
F-162.03181457519531
aF0.0
aF0.0
aaF0.033390999999998172
aa(lp1537
(lp1538
F39.657783508300781
aF-1.409543514251709
aF0.30000001192092896
aa(lp1539
F-162.03181457519531
aF0.0
aF0.0
aaF0.033303000000000083
aa(lp1540
(lp1541
F39.412807464599609
aF-1.488991379737854
aF0.30000001192092896
aa(lp1542
F-162.03181457519531
aF0.0
aF0.0
aaF0.033287000000001399
aa(lp1543
(lp1544
F39.170055389404297
aF-1.567717432975769
aF0.30000001192092896
aa(lp1545
F-162.03181457519531
aF0.0
aF0.0
aaF0.033331999999997919
aa(lp1546
(lp1547
F38.929088592529297
aF-1.6458643674850464
aF0.30000001192092896
aa(lp1548
F-162.03181457519531
aF0.0
aF0.0
aaF0.033412000000001996
aa(lp1549
(lp1550
F38.689666748046875
aF-1.7235101461410522
aF0.30000001192092896
aa(lp1551
F-162.03181457519531
aF0.0
aF0.0
aaF0.033319999999999794
aa(lp1552
(lp1553
F38.453014373779297
aF-1.8002570867538452
aF0.30000001192092896
aa(lp1554
F-162.03181457519531
aF0.0
aF0.0
aaF0.033380999999998551
aa(lp1555
(lp1556
F38.218051910400391
aF-1.8764570951461792
aF0.30000001192092896
aa(lp1557
F-162.03181457519531
aF0.0
aF0.0
aaF0.033348000000000155
aa(lp1558
(lp1559
F37.985435485839844
aF-1.9518955945968628
aF0.30000001192092896
aa(lp1560
F-162.03181457519531
aF0.0
aF0.0
aaF0.033331000000000444
aa(lp1561
(lp1562
F37.755054473876953
aF-2.0266103744506836
aF0.30000001192092896
aa(lp1563
F-162.03181457519531
aF0.0
aF0.0
aaF0.03332200000000185
aa(lp1564
(lp1565
F37.526844024658203
aF-2.1006197929382324
aF0.30000001192092896
aa(lp1566
F-162.03181457519531
aF0.0
aF0.0
aaF0.033615999999998536
aa(lp1567
(lp1568
F37.298770904541016
aF-2.1745848655700684
aF0.30000001192092896
aa(lp1569
F-162.03181457519531
aF0.0
aF0.0
aaF0.033146999999999593
aa(lp1570
(lp1571
F37.075973510742188
aF-2.246840238571167
aF0.30000001192092896
aa(lp1572
F-162.03181457519531
aF0.0
aF0.0
aaF0.033294999999998964
aa(lp1573
(lp1574
F36.854286193847656
aF-2.3187341690063477
aF0.30000001192092896
aa(lp1575
F-162.03181457519531
aF0.0
aF0.0
aaF0.033414000000000499
aa(lp1576
(lp1577
F36.633934020996094
aF-2.3901963233947754
aF0.30000001192092896
aa(lp1578
F-162.03181457519531
aF0.0
aF0.0
aaF0.033287000000001399
aa(lp1579
(lp1580
F36.416522979736328
aF-2.4607033729553223
aF0.30000001192092896
aa(lp1581
F-162.03181457519531
aF0.0
aF0.0
aaF0.033376999999997992
aa(lp1582
(lp1583
F36.200645446777344
aF-2.5307135581970215
aF0.30000001192092896
aa(lp1584
F-162.03181457519531
aF0.0
aF0.0
aaF0.033425000000001148
aa(lp1585
(lp1586
F35.986583709716797
aF-2.6001350879669189
aF0.30000001192092896
aa(lp1587
F-162.03181457519531
aF0.0
aF0.0
aaF0.033349000000001183
aa(lp1588
(lp1589
F35.775123596191406
aF-2.6687126159667969
aF0.30000001192092896
aa(lp1590
F-162.03181457519531
aF0.0
aF0.0
aaF0.033335999999998478
aa(lp1591
(lp1592
F35.565860748291016
aF-2.7365777492523193
aF0.30000001192092896
aa(lp1593
F-162.03181457519531
aF0.0
aF0.0
aaF0.033363000000001364
aa(lp1594
(lp1595
F35.358547210693359
aF-2.8038110733032227
aF0.30000001192092896
aa(lp1596
F-162.03181457519531
aF0.0
aF0.0
aaF0.033357999999999777
aa(lp1597
(lp1598
F35.15338134765625
aF-2.8703479766845703
aF0.30000001192092896
aa(lp1599
F-162.03181457519531
aF0.0
aF0.0
aaF0.033297999999998495
aa(lp1600
(lp1601
F34.950691223144531
aF-2.9360809326171875
aF0.30000001192092896
aa(lp1602
F-162.03181457519531
aF0.0
aF0.0
aaF0.033387000000001166
aa(lp1603
(lp1604
F34.749584197998047
aF-3.0013017654418945
aF0.30000001192092896
aa(lp1605
F-162.03181457519531
aF0.0
aF0.0
aaF0.033303000000000083
aa(lp1606
(lp1607
F34.551090240478516
aF-3.0656745433807373
aF0.30000001192092896
aa(lp1608
F-162.03181457519531
aF0.0
aF0.0
aaF0.033362000000000336
aa(lp1609
(lp1610
F34.354362487792969
aF-3.129474401473999
aF0.30000001192092896
aa(lp1611
F-162.03181457519531
aF0.0
aF0.0
aaF0.033605999999998915
aa(lp1612
(lp1613
F34.158344268798828
aF-3.1930441856384277
aF0.30000001192092896
aa(lp1614
F-162.03181457519531
aF0.0
aF0.0
aaF0.033127000000000351
aa(lp1615
(lp1616
F33.967208862304688
aF-3.255030632019043
aF0.30000001192092896
aa(lp1617
F-162.03181457519531
aF0.0
aF0.0
aaF0.033391000000001725
aa(lp1618
(lp1619
F33.776668548583984
aF-3.3168232440948486
aF0.30000001192092896
aa(lp1620
F-162.03181457519531
aF0.0
aF0.0
aaF0.033415999999999002
aa(lp1621
(lp1622
F33.588111877441406
aF-3.3779733180999756
aF0.30000001192092896
aa(lp1623
F-162.03181457519531
aF0.0
aF0.0
aaF0.033252000000000947
aa(lp1624
(lp1625
F33.402584075927734
aF-3.4381411075592041
aF0.30000001192092896
aa(lp1626
F-162.03181457519531
aF0.0
aF0.0
aaF0.033304999999998586
aa(lp1627
(lp1628
F33.2188720703125
aF-3.4977202415466309
aF0.30000001192092896
aa(lp1629
F-162.03181457519531
aF0.0
aF0.0
aaF0.033418999999998533
aa(lp1630
(lp1631
F33.036655426025391
aF-3.556814432144165
aF0.30000001192092896
aa(lp1632
F-162.03181457519531
aF0.0
aF0.0
aaF0.033271000000002715
aa(lp1633
(lp1634
F32.857349395751953
aF-3.6149637699127197
aF0.30000001192092896
aa(lp1635
F-162.03181457519531
aF0.0
aF0.0
aaF0.033397999999998262
aa(lp1636
(lp1637
F32.679481506347656
aF-3.6726469993591309
aF0.30000001192092896
aa(lp1638
F-162.03181457519531
aF0.0
aF0.0
aaF0.033426999999999651
aa(lp1639
(lp1640
F32.503589630126953
aF-3.7296910285949707
aF0.30000001192092896
aa(lp1641
F-162.03181457519531
aF0.0
aF0.0
aaF0.033231000000000677
aa(lp1642
(lp1643
F32.330825805664062
aF-3.7857191562652588
aF0.30000001192092896
aa(lp1644
F-162.03181457519531
aF0.0
aF0.0
aaF0.033470000000001221
aa(lp1645
(lp1646
F32.158950805664062
aF-3.8414590358734131
aF0.30000001192092896
aa(lp1647
F-162.03181457519531
aF0.0
aF0.0
aaF0.033228999999998621
aa(lp1648
(lp1649
F31.990413665771484
aF-3.8961162567138672
aF0.30000001192092896
aa(lp1650
F-162.03181457519531
aF0.0
aF0.0
aaF0.033415000000001527
aa(lp1651
(lp1652
F31.82305908203125
aF-3.9503905773162842
aF0.30000001192092896
aa(lp1653
F-162.03181457519531
aF0.0
aF0.0
aaF0.033351999999997162
aa(lp1654
(lp1655
F31.658134460449219
aF-4.0038762092590332
aF0.30000001192092896
aa(lp1656
F-162.03181457519531
aF0.0
aF0.0
aaF0.033507000000000176
aa(lp1657
(lp1658
F31.49458122253418
aF-4.0569181442260742
aF0.30000001192092896
aa(lp1659
F-162.03181457519531
aF0.0
aF0.0
aaF0.03314500000000109
aa(lp1660
(lp1661
F31.334882736206055
aF-4.1087088584899902
aF0.30000001192092896
aa(lp1662
F-162.03181457519531
aF0.0
aF0.0
aaF0.033401999999998822
aa(lp1663
(lp1664
F31.176071166992188
aF-4.160212516784668
aF0.30000001192092896
aa(lp1665
F-162.03181457519531
aF0.0
aF0.0
aaF0.033362000000000336
aa(lp1666
(lp1667
F31.019565582275391
aF-4.210968017578125
aF0.30000001192092896
aa(lp1668
F-162.03181457519531
aF0.0
aF0.0
aaF0.033292000000002986
aa(lp1669
(lp1670
F30.865495681762695
aF-4.2609333992004395
aF0.30000001192092896
aa(lp1671
F-162.03181457519531
aF0.0
aF0.0
aaF0.033405999999999381
aa(lp1672
(lp1673
F30.713024139404297
aF-4.3103814125061035
aF0.30000001192092896
aa(lp1674
F-162.03181457519531
aF0.0
aF0.0
aaF0.033307999999998117
aa(lp1675
(lp1676
F30.563108444213867
aF-4.3589997291564941
aF0.30000001192092896
aa(lp1677
F-162.03181457519531
aF0.0
aF0.0
aaF0.033402000000002374
aa(lp1678
(lp1679
F30.414894104003906
aF-4.407066822052002
aF0.30000001192092896
aa(lp1680
F-162.03181457519531
aF0.0
aF0.0
aaF0.033346999999999127
aa(lp1681
(lp1682
F30.269037246704102
aF-4.4543685913085938
aF0.30000001192092896
aa(lp1683
F-162.03181457519531
aF0.0
aF0.0
aaF0.033369000000000426
aa(lp1684
(lp1685
F30.125204086303711
aF-4.5010147094726562
aF0.30000001192092896
aa(lp1686
F-162.03181457519531
aF0.0
aF0.0
aaF0.03337799999999902
aa(lp1687
(lp1688
F29.983451843261719
aF-4.5469861030578613
aF0.30000001192092896
aa(lp1689
F-162.03181457519531
aF0.0
aF0.0
aaF0.033287999999998874
aa(lp1690
(lp1691
F29.844188690185547
aF-4.5921497344970703
aF0.30000001192092896
aa(lp1692
F-162.03181457519531
aF0.0
aF0.0
aaF0.033367000000001923
aa(lp1693
(lp1694
F29.70671272277832
aF-4.6367335319519043
aF0.30000001192092896
aa(lp1695
F-162.03181457519531
aF0.0
aF0.0
aaF0.033339999999999037
aa(lp1696
(lp1697
F29.571464538574219
aF-4.6805953979492188
aF0.30000001192092896
aa(lp1698
F-162.03181457519531
aF0.0
aF0.0
aaF0.033388999999999669
aa.